

Microchip Technology PIC LITE Macro Assembler V2.00 build -1524193055 
                                                                                               Sun Jun 16 16:40:46 2019

Microchip Technology Omniscient Code Generator v2.00 (Free mode) build 20180527130849
     1                           	processor	16F1786
     2                           	opt	pw 120
     3                           	opt	lm
     4                           	psect	stringtext1,global,class=STRCODE,delta=2
     5                           	psect	cinit,global,class=CODE,merge=1,delta=2
     6                           	psect	bssBANK0,global,class=BANK0,space=1,delta=1
     7                           	psect	bssBANK1,global,class=BANK1,space=1,delta=1
     8                           	psect	clrtext,global,class=CODE,delta=2
     9                           	psect	cstackCOMMON,global,class=COMMON,space=1,delta=1
    10                           	psect	cstackBANK0,global,class=BANK0,space=1,delta=1
    11                           	psect	maintext,global,class=CODE,merge=1,split=1,delta=2
    12                           	psect	text1,local,class=CODE,merge=1,delta=2
    13                           	psect	text2,local,class=CODE,merge=1,delta=2
    14                           	psect	text3,local,class=CODE,merge=1,delta=2
    15                           	psect	text4,local,class=CODE,merge=1,delta=2
    16                           	psect	text5,local,class=CODE,merge=1,delta=2
    17                           	psect	text6,local,class=CODE,merge=1,delta=2
    18                           	psect	text7,local,class=CODE,merge=1,delta=2
    19                           	psect	text8,local,class=CODE,merge=1,delta=2
    20                           	psect	text9,local,class=CODE,merge=1,delta=2
    21                           	psect	text10,local,class=CODE,merge=1,delta=2
    22                           	psect	text11,local,class=CODE,merge=1,delta=2
    23                           	psect	text12,local,class=CODE,merge=1,delta=2
    24                           	psect	text13,local,class=CODE,merge=1,delta=2,group=1
    25                           	psect	text14,local,class=CODE,merge=1,delta=2
    26                           	psect	text15,local,class=CODE,merge=1,delta=2
    27                           	psect	intentry,global,class=CODE,delta=2
    28                           	psect	text17,local,class=CODE,merge=1,delta=2
    29                           	psect	text18,local,class=CODE,merge=1,delta=2
    30                           	psect	text19,local,class=CODE,merge=1,delta=2
    31                           	psect	text20,local,class=CODE,merge=1,delta=2
    32                           	psect	text21,local,class=CODE,merge=1,delta=2
    33                           	psect	text22,local,class=CODE,merge=1,delta=2
    34                           	psect	text23,local,class=CODE,merge=1,delta=2
    35                           	psect	text24,local,class=CODE,merge=1,delta=2
    36                           	psect	text25,local,class=CODE,merge=1,delta=2
    37                           	psect	text26,local,class=CODE,merge=1,delta=2
    38                           	psect	text27,local,class=CODE,merge=1,delta=2
    39                           	dabs	1,0x7E,2
    40  0000                     
    41                           ; Version 2.00
    42                           ; Generated 27/05/2018 GMT
    43                           ; 
    44                           ; Copyright © 2018, Microchip Technology Inc. and its subsidiaries ("Microchip")
    45                           ; All rights reserved.
    46                           ; 
    47                           ; This software is developed by Microchip Technology Inc. and its subsidiaries ("Microch
      +                          ip").
    48                           ; 
    49                           ; Redistribution and use in source and binary forms, with or without modification, are
    50                           ; permitted provided that the following conditions are met:
    51                           ; 
    52                           ;     1. Redistributions of source code must retain the above copyright notice, this lis
      +                          t of
    53                           ;        conditions and the following disclaimer.
    54                           ; 
    55                           ;     2. Redistributions in binary form must reproduce the above copyright notice, this 
      +                          list
    56                           ;        of conditions and the following disclaimer in the documentation and/or other
    57                           ;        materials provided with the distribution.
    58                           ; 
    59                           ;     3. Microchip's name may not be used to endorse or promote products derived from th
      +                          is
    60                           ;        software without specific prior written permission.
    61                           ; 
    62                           ; THIS SOFTWARE IS PROVIDED BY MICROCHIP "AS IS" AND ANY EXPRESS OR IMPLIED WARRANTIES,
    63                           ; INCLUDING, BUT NOT LIMITED TO, THE IMPLIED WARRANTIES OF MERCHANTABILITY AND FITNESS F
      +                          OR
    64                           ; PURPOSE ARE DISCLAIMED.  IN NO EVENT SHALL MICROCHIP BE LIABLE FOR ANY DIRECT, INDIREC
      +                          T,
    65                           ; INCIDENTAL, SPECIAL, EXEMPLARY, OR CONSEQUENTIAL DAMAGES (INCLUDING BUT NOT LIMITED TO
    66                           ; PROCUREMENT OF SUBSTITUTE GOODS OR SERVICES; LOSS OF USE, DATA OR PROFITS; OR BUSINESS
    67                           ; INTERRUPTION) HOWSOEVER CAUSED AND ON ANY THEORY OF LIABILITY, WHETHER IN CONTRACT, ST
      +                          RICT
    68                           ; LIABILITY, OR TORT (INCLUDING NEGLIGENCE OR OTHERWISE) ARISING IN ANY WAY OUT OF THE U
      +                          SE OF
    69                           ; THIS SOFTWARE, EVEN IF ADVISED OF THE POSSIBILITY OF SUCH DAMAGE.
    70                           ; 
    71                           ; 
    72                           ; Code-generator required, PIC16F1786 Definitions
    73                           ; 
    74                           ; SFR Addresses
    75  0000                     	;# 
    76  0001                     	;# 
    77  0002                     	;# 
    78  0003                     	;# 
    79  0004                     	;# 
    80  0005                     	;# 
    81  0006                     	;# 
    82  0007                     	;# 
    83  0008                     	;# 
    84  0009                     	;# 
    85  000A                     	;# 
    86  000B                     	;# 
    87  000C                     	;# 
    88  000D                     	;# 
    89  000E                     	;# 
    90  0010                     	;# 
    91  0011                     	;# 
    92  0012                     	;# 
    93  0013                     	;# 
    94  0014                     	;# 
    95  0015                     	;# 
    96  0016                     	;# 
    97  0016                     	;# 
    98  0017                     	;# 
    99  0018                     	;# 
   100  0019                     	;# 
   101  001A                     	;# 
   102  001B                     	;# 
   103  001C                     	;# 
   104  008C                     	;# 
   105  008D                     	;# 
   106  008E                     	;# 
   107  0090                     	;# 
   108  0091                     	;# 
   109  0092                     	;# 
   110  0093                     	;# 
   111  0094                     	;# 
   112  0095                     	;# 
   113  0096                     	;# 
   114  0097                     	;# 
   115  0098                     	;# 
   116  0099                     	;# 
   117  009A                     	;# 
   118  009B                     	;# 
   119  009B                     	;# 
   120  009C                     	;# 
   121  009D                     	;# 
   122  009E                     	;# 
   123  009F                     	;# 
   124  010C                     	;# 
   125  010D                     	;# 
   126  010E                     	;# 
   127  0111                     	;# 
   128  0112                     	;# 
   129  0113                     	;# 
   130  0114                     	;# 
   131  0115                     	;# 
   132  0116                     	;# 
   133  0117                     	;# 
   134  0118                     	;# 
   135  0119                     	;# 
   136  011A                     	;# 
   137  011B                     	;# 
   138  011C                     	;# 
   139  011D                     	;# 
   140  011D                     	;# 
   141  011D                     	;# 
   142  011E                     	;# 
   143  011F                     	;# 
   144  018C                     	;# 
   145  018D                     	;# 
   146  0191                     	;# 
   147  0191                     	;# 
   148  0192                     	;# 
   149  0193                     	;# 
   150  0193                     	;# 
   151  0193                     	;# 
   152  0194                     	;# 
   153  0195                     	;# 
   154  0196                     	;# 
   155  0197                     	;# 
   156  0199                     	;# 
   157  0199                     	;# 
   158  0199                     	;# 
   159  019A                     	;# 
   160  019A                     	;# 
   161  019A                     	;# 
   162  019B                     	;# 
   163  019B                     	;# 
   164  019B                     	;# 
   165  019B                     	;# 
   166  019B                     	;# 
   167  019C                     	;# 
   168  019C                     	;# 
   169  019C                     	;# 
   170  019D                     	;# 
   171  019D                     	;# 
   172  019D                     	;# 
   173  019E                     	;# 
   174  019E                     	;# 
   175  019E                     	;# 
   176  019F                     	;# 
   177  019F                     	;# 
   178  019F                     	;# 
   179  019F                     	;# 
   180  019F                     	;# 
   181  020C                     	;# 
   182  020D                     	;# 
   183  020E                     	;# 
   184  0210                     	;# 
   185  0211                     	;# 
   186  0211                     	;# 
   187  0212                     	;# 
   188  0212                     	;# 
   189  0213                     	;# 
   190  0213                     	;# 
   191  0214                     	;# 
   192  0214                     	;# 
   193  0215                     	;# 
   194  0215                     	;# 
   195  0215                     	;# 
   196  0215                     	;# 
   197  0216                     	;# 
   198  0216                     	;# 
   199  0217                     	;# 
   200  0217                     	;# 
   201  028C                     	;# 
   202  028D                     	;# 
   203  028E                     	;# 
   204  0291                     	;# 
   205  0291                     	;# 
   206  0292                     	;# 
   207  0293                     	;# 
   208  0298                     	;# 
   209  0298                     	;# 
   210  0299                     	;# 
   211  029A                     	;# 
   212  030C                     	;# 
   213  030D                     	;# 
   214  030E                     	;# 
   215  0311                     	;# 
   216  0311                     	;# 
   217  0312                     	;# 
   218  0313                     	;# 
   219  038C                     	;# 
   220  038D                     	;# 
   221  038E                     	;# 
   222  0390                     	;# 
   223  0391                     	;# 
   224  0392                     	;# 
   225  0393                     	;# 
   226  0394                     	;# 
   227  0395                     	;# 
   228  0396                     	;# 
   229  0397                     	;# 
   230  0398                     	;# 
   231  0399                     	;# 
   232  039D                     	;# 
   233  039E                     	;# 
   234  039F                     	;# 
   235  0511                     	;# 
   236  0513                     	;# 
   237  051A                     	;# 
   238  0811                     	;# 
   239  0812                     	;# 
   240  0813                     	;# 
   241  0814                     	;# 
   242  0815                     	;# 
   243  0816                     	;# 
   244  0817                     	;# 
   245  0818                     	;# 
   246  0819                     	;# 
   247  081A                     	;# 
   248  081B                     	;# 
   249  081C                     	;# 
   250  081D                     	;# 
   251  081E                     	;# 
   252  081F                     	;# 
   253  0820                     	;# 
   254  0821                     	;# 
   255  0821                     	;# 
   256  0822                     	;# 
   257  0823                     	;# 
   258  0823                     	;# 
   259  0824                     	;# 
   260  0825                     	;# 
   261  0825                     	;# 
   262  0826                     	;# 
   263  0827                     	;# 
   264  0827                     	;# 
   265  0828                     	;# 
   266  0829                     	;# 
   267  082A                     	;# 
   268  082B                     	;# 
   269  082C                     	;# 
   270  082D                     	;# 
   271  082E                     	;# 
   272  082F                     	;# 
   273  0831                     	;# 
   274  0832                     	;# 
   275  0833                     	;# 
   276  0834                     	;# 
   277  0835                     	;# 
   278  0836                     	;# 
   279  0837                     	;# 
   280  0838                     	;# 
   281  0839                     	;# 
   282  083A                     	;# 
   283  083B                     	;# 
   284  083C                     	;# 
   285  083D                     	;# 
   286  083E                     	;# 
   287  083F                     	;# 
   288  0840                     	;# 
   289  0841                     	;# 
   290  0841                     	;# 
   291  0842                     	;# 
   292  0843                     	;# 
   293  0843                     	;# 
   294  0844                     	;# 
   295  0845                     	;# 
   296  0845                     	;# 
   297  0846                     	;# 
   298  0847                     	;# 
   299  0847                     	;# 
   300  0848                     	;# 
   301  0849                     	;# 
   302  084A                     	;# 
   303  084B                     	;# 
   304  084C                     	;# 
   305  084D                     	;# 
   306  084E                     	;# 
   307  084F                     	;# 
   308  0851                     	;# 
   309  0852                     	;# 
   310  0853                     	;# 
   311  0854                     	;# 
   312  0855                     	;# 
   313  0856                     	;# 
   314  0857                     	;# 
   315  0858                     	;# 
   316  0859                     	;# 
   317  085A                     	;# 
   318  085B                     	;# 
   319  085C                     	;# 
   320  085D                     	;# 
   321  085E                     	;# 
   322  085F                     	;# 
   323  0860                     	;# 
   324  0861                     	;# 
   325  0861                     	;# 
   326  0862                     	;# 
   327  0863                     	;# 
   328  0863                     	;# 
   329  0864                     	;# 
   330  0865                     	;# 
   331  0865                     	;# 
   332  0866                     	;# 
   333  0867                     	;# 
   334  0867                     	;# 
   335  0868                     	;# 
   336  0869                     	;# 
   337  086A                     	;# 
   338  086B                     	;# 
   339  086C                     	;# 
   340  086D                     	;# 
   341  086E                     	;# 
   342  086F                     	;# 
   343  0FE4                     	;# 
   344  0FE5                     	;# 
   345  0FE6                     	;# 
   346  0FE7                     	;# 
   347  0FE8                     	;# 
   348  0FE9                     	;# 
   349  0FEA                     	;# 
   350  0FEB                     	;# 
   351  0FED                     	;# 
   352  0FEE                     	;# 
   353  0FEF                     	;# 
   354  0000                     	;# 
   355  0001                     	;# 
   356  0002                     	;# 
   357  0003                     	;# 
   358  0004                     	;# 
   359  0005                     	;# 
   360  0006                     	;# 
   361  0007                     	;# 
   362  0008                     	;# 
   363  0009                     	;# 
   364  000A                     	;# 
   365  000B                     	;# 
   366  000C                     	;# 
   367  000D                     	;# 
   368  000E                     	;# 
   369  0010                     	;# 
   370  0011                     	;# 
   371  0012                     	;# 
   372  0013                     	;# 
   373  0014                     	;# 
   374  0015                     	;# 
   375  0016                     	;# 
   376  0016                     	;# 
   377  0017                     	;# 
   378  0018                     	;# 
   379  0019                     	;# 
   380  001A                     	;# 
   381  001B                     	;# 
   382  001C                     	;# 
   383  008C                     	;# 
   384  008D                     	;# 
   385  008E                     	;# 
   386  0090                     	;# 
   387  0091                     	;# 
   388  0092                     	;# 
   389  0093                     	;# 
   390  0094                     	;# 
   391  0095                     	;# 
   392  0096                     	;# 
   393  0097                     	;# 
   394  0098                     	;# 
   395  0099                     	;# 
   396  009A                     	;# 
   397  009B                     	;# 
   398  009B                     	;# 
   399  009C                     	;# 
   400  009D                     	;# 
   401  009E                     	;# 
   402  009F                     	;# 
   403  010C                     	;# 
   404  010D                     	;# 
   405  010E                     	;# 
   406  0111                     	;# 
   407  0112                     	;# 
   408  0113                     	;# 
   409  0114                     	;# 
   410  0115                     	;# 
   411  0116                     	;# 
   412  0117                     	;# 
   413  0118                     	;# 
   414  0119                     	;# 
   415  011A                     	;# 
   416  011B                     	;# 
   417  011C                     	;# 
   418  011D                     	;# 
   419  011D                     	;# 
   420  011D                     	;# 
   421  011E                     	;# 
   422  011F                     	;# 
   423  018C                     	;# 
   424  018D                     	;# 
   425  0191                     	;# 
   426  0191                     	;# 
   427  0192                     	;# 
   428  0193                     	;# 
   429  0193                     	;# 
   430  0193                     	;# 
   431  0194                     	;# 
   432  0195                     	;# 
   433  0196                     	;# 
   434  0197                     	;# 
   435  0199                     	;# 
   436  0199                     	;# 
   437  0199                     	;# 
   438  019A                     	;# 
   439  019A                     	;# 
   440  019A                     	;# 
   441  019B                     	;# 
   442  019B                     	;# 
   443  019B                     	;# 
   444  019B                     	;# 
   445  019B                     	;# 
   446  019C                     	;# 
   447  019C                     	;# 
   448  019C                     	;# 
   449  019D                     	;# 
   450  019D                     	;# 
   451  019D                     	;# 
   452  019E                     	;# 
   453  019E                     	;# 
   454  019E                     	;# 
   455  019F                     	;# 
   456  019F                     	;# 
   457  019F                     	;# 
   458  019F                     	;# 
   459  019F                     	;# 
   460  020C                     	;# 
   461  020D                     	;# 
   462  020E                     	;# 
   463  0210                     	;# 
   464  0211                     	;# 
   465  0211                     	;# 
   466  0212                     	;# 
   467  0212                     	;# 
   468  0213                     	;# 
   469  0213                     	;# 
   470  0214                     	;# 
   471  0214                     	;# 
   472  0215                     	;# 
   473  0215                     	;# 
   474  0215                     	;# 
   475  0215                     	;# 
   476  0216                     	;# 
   477  0216                     	;# 
   478  0217                     	;# 
   479  0217                     	;# 
   480  028C                     	;# 
   481  028D                     	;# 
   482  028E                     	;# 
   483  0291                     	;# 
   484  0291                     	;# 
   485  0292                     	;# 
   486  0293                     	;# 
   487  0298                     	;# 
   488  0298                     	;# 
   489  0299                     	;# 
   490  029A                     	;# 
   491  030C                     	;# 
   492  030D                     	;# 
   493  030E                     	;# 
   494  0311                     	;# 
   495  0311                     	;# 
   496  0312                     	;# 
   497  0313                     	;# 
   498  038C                     	;# 
   499  038D                     	;# 
   500  038E                     	;# 
   501  0390                     	;# 
   502  0391                     	;# 
   503  0392                     	;# 
   504  0393                     	;# 
   505  0394                     	;# 
   506  0395                     	;# 
   507  0396                     	;# 
   508  0397                     	;# 
   509  0398                     	;# 
   510  0399                     	;# 
   511  039D                     	;# 
   512  039E                     	;# 
   513  039F                     	;# 
   514  0511                     	;# 
   515  0513                     	;# 
   516  051A                     	;# 
   517  0811                     	;# 
   518  0812                     	;# 
   519  0813                     	;# 
   520  0814                     	;# 
   521  0815                     	;# 
   522  0816                     	;# 
   523  0817                     	;# 
   524  0818                     	;# 
   525  0819                     	;# 
   526  081A                     	;# 
   527  081B                     	;# 
   528  081C                     	;# 
   529  081D                     	;# 
   530  081E                     	;# 
   531  081F                     	;# 
   532  0820                     	;# 
   533  0821                     	;# 
   534  0821                     	;# 
   535  0822                     	;# 
   536  0823                     	;# 
   537  0823                     	;# 
   538  0824                     	;# 
   539  0825                     	;# 
   540  0825                     	;# 
   541  0826                     	;# 
   542  0827                     	;# 
   543  0827                     	;# 
   544  0828                     	;# 
   545  0829                     	;# 
   546  082A                     	;# 
   547  082B                     	;# 
   548  082C                     	;# 
   549  082D                     	;# 
   550  082E                     	;# 
   551  082F                     	;# 
   552  0831                     	;# 
   553  0832                     	;# 
   554  0833                     	;# 
   555  0834                     	;# 
   556  0835                     	;# 
   557  0836                     	;# 
   558  0837                     	;# 
   559  0838                     	;# 
   560  0839                     	;# 
   561  083A                     	;# 
   562  083B                     	;# 
   563  083C                     	;# 
   564  083D                     	;# 
   565  083E                     	;# 
   566  083F                     	;# 
   567  0840                     	;# 
   568  0841                     	;# 
   569  0841                     	;# 
   570  0842                     	;# 
   571  0843                     	;# 
   572  0843                     	;# 
   573  0844                     	;# 
   574  0845                     	;# 
   575  0845                     	;# 
   576  0846                     	;# 
   577  0847                     	;# 
   578  0847                     	;# 
   579  0848                     	;# 
   580  0849                     	;# 
   581  084A                     	;# 
   582  084B                     	;# 
   583  084C                     	;# 
   584  084D                     	;# 
   585  084E                     	;# 
   586  084F                     	;# 
   587  0851                     	;# 
   588  0852                     	;# 
   589  0853                     	;# 
   590  0854                     	;# 
   591  0855                     	;# 
   592  0856                     	;# 
   593  0857                     	;# 
   594  0858                     	;# 
   595  0859                     	;# 
   596  085A                     	;# 
   597  085B                     	;# 
   598  085C                     	;# 
   599  085D                     	;# 
   600  085E                     	;# 
   601  085F                     	;# 
   602  0860                     	;# 
   603  0861                     	;# 
   604  0861                     	;# 
   605  0862                     	;# 
   606  0863                     	;# 
   607  0863                     	;# 
   608  0864                     	;# 
   609  0865                     	;# 
   610  0865                     	;# 
   611  0866                     	;# 
   612  0867                     	;# 
   613  0867                     	;# 
   614  0868                     	;# 
   615  0869                     	;# 
   616  086A                     	;# 
   617  086B                     	;# 
   618  086C                     	;# 
   619  086D                     	;# 
   620  086E                     	;# 
   621  086F                     	;# 
   622  0FE4                     	;# 
   623  0FE5                     	;# 
   624  0FE6                     	;# 
   625  0FE7                     	;# 
   626  0FE8                     	;# 
   627  0FE9                     	;# 
   628  0FEA                     	;# 
   629  0FEB                     	;# 
   630  0FED                     	;# 
   631  0FEE                     	;# 
   632  0FEF                     	;# 
   633  0000                     	;# 
   634  0001                     	;# 
   635  0002                     	;# 
   636  0003                     	;# 
   637  0004                     	;# 
   638  0005                     	;# 
   639  0006                     	;# 
   640  0007                     	;# 
   641  0008                     	;# 
   642  0009                     	;# 
   643  000A                     	;# 
   644  000B                     	;# 
   645  000C                     	;# 
   646  000D                     	;# 
   647  000E                     	;# 
   648  0010                     	;# 
   649  0011                     	;# 
   650  0012                     	;# 
   651  0013                     	;# 
   652  0014                     	;# 
   653  0015                     	;# 
   654  0016                     	;# 
   655  0016                     	;# 
   656  0017                     	;# 
   657  0018                     	;# 
   658  0019                     	;# 
   659  001A                     	;# 
   660  001B                     	;# 
   661  001C                     	;# 
   662  008C                     	;# 
   663  008D                     	;# 
   664  008E                     	;# 
   665  0090                     	;# 
   666  0091                     	;# 
   667  0092                     	;# 
   668  0093                     	;# 
   669  0094                     	;# 
   670  0095                     	;# 
   671  0096                     	;# 
   672  0097                     	;# 
   673  0098                     	;# 
   674  0099                     	;# 
   675  009A                     	;# 
   676  009B                     	;# 
   677  009B                     	;# 
   678  009C                     	;# 
   679  009D                     	;# 
   680  009E                     	;# 
   681  009F                     	;# 
   682  010C                     	;# 
   683  010D                     	;# 
   684  010E                     	;# 
   685  0111                     	;# 
   686  0112                     	;# 
   687  0113                     	;# 
   688  0114                     	;# 
   689  0115                     	;# 
   690  0116                     	;# 
   691  0117                     	;# 
   692  0118                     	;# 
   693  0119                     	;# 
   694  011A                     	;# 
   695  011B                     	;# 
   696  011C                     	;# 
   697  011D                     	;# 
   698  011D                     	;# 
   699  011D                     	;# 
   700  011E                     	;# 
   701  011F                     	;# 
   702  018C                     	;# 
   703  018D                     	;# 
   704  0191                     	;# 
   705  0191                     	;# 
   706  0192                     	;# 
   707  0193                     	;# 
   708  0193                     	;# 
   709  0193                     	;# 
   710  0194                     	;# 
   711  0195                     	;# 
   712  0196                     	;# 
   713  0197                     	;# 
   714  0199                     	;# 
   715  0199                     	;# 
   716  0199                     	;# 
   717  019A                     	;# 
   718  019A                     	;# 
   719  019A                     	;# 
   720  019B                     	;# 
   721  019B                     	;# 
   722  019B                     	;# 
   723  019B                     	;# 
   724  019B                     	;# 
   725  019C                     	;# 
   726  019C                     	;# 
   727  019C                     	;# 
   728  019D                     	;# 
   729  019D                     	;# 
   730  019D                     	;# 
   731  019E                     	;# 
   732  019E                     	;# 
   733  019E                     	;# 
   734  019F                     	;# 
   735  019F                     	;# 
   736  019F                     	;# 
   737  019F                     	;# 
   738  019F                     	;# 
   739  020C                     	;# 
   740  020D                     	;# 
   741  020E                     	;# 
   742  0210                     	;# 
   743  0211                     	;# 
   744  0211                     	;# 
   745  0212                     	;# 
   746  0212                     	;# 
   747  0213                     	;# 
   748  0213                     	;# 
   749  0214                     	;# 
   750  0214                     	;# 
   751  0215                     	;# 
   752  0215                     	;# 
   753  0215                     	;# 
   754  0215                     	;# 
   755  0216                     	;# 
   756  0216                     	;# 
   757  0217                     	;# 
   758  0217                     	;# 
   759  028C                     	;# 
   760  028D                     	;# 
   761  028E                     	;# 
   762  0291                     	;# 
   763  0291                     	;# 
   764  0292                     	;# 
   765  0293                     	;# 
   766  0298                     	;# 
   767  0298                     	;# 
   768  0299                     	;# 
   769  029A                     	;# 
   770  030C                     	;# 
   771  030D                     	;# 
   772  030E                     	;# 
   773  0311                     	;# 
   774  0311                     	;# 
   775  0312                     	;# 
   776  0313                     	;# 
   777  038C                     	;# 
   778  038D                     	;# 
   779  038E                     	;# 
   780  0390                     	;# 
   781  0391                     	;# 
   782  0392                     	;# 
   783  0393                     	;# 
   784  0394                     	;# 
   785  0395                     	;# 
   786  0396                     	;# 
   787  0397                     	;# 
   788  0398                     	;# 
   789  0399                     	;# 
   790  039D                     	;# 
   791  039E                     	;# 
   792  039F                     	;# 
   793  0511                     	;# 
   794  0513                     	;# 
   795  051A                     	;# 
   796  0811                     	;# 
   797  0812                     	;# 
   798  0813                     	;# 
   799  0814                     	;# 
   800  0815                     	;# 
   801  0816                     	;# 
   802  0817                     	;# 
   803  0818                     	;# 
   804  0819                     	;# 
   805  081A                     	;# 
   806  081B                     	;# 
   807  081C                     	;# 
   808  081D                     	;# 
   809  081E                     	;# 
   810  081F                     	;# 
   811  0820                     	;# 
   812  0821                     	;# 
   813  0821                     	;# 
   814  0822                     	;# 
   815  0823                     	;# 
   816  0823                     	;# 
   817  0824                     	;# 
   818  0825                     	;# 
   819  0825                     	;# 
   820  0826                     	;# 
   821  0827                     	;# 
   822  0827                     	;# 
   823  0828                     	;# 
   824  0829                     	;# 
   825  082A                     	;# 
   826  082B                     	;# 
   827  082C                     	;# 
   828  082D                     	;# 
   829  082E                     	;# 
   830  082F                     	;# 
   831  0831                     	;# 
   832  0832                     	;# 
   833  0833                     	;# 
   834  0834                     	;# 
   835  0835                     	;# 
   836  0836                     	;# 
   837  0837                     	;# 
   838  0838                     	;# 
   839  0839                     	;# 
   840  083A                     	;# 
   841  083B                     	;# 
   842  083C                     	;# 
   843  083D                     	;# 
   844  083E                     	;# 
   845  083F                     	;# 
   846  0840                     	;# 
   847  0841                     	;# 
   848  0841                     	;# 
   849  0842                     	;# 
   850  0843                     	;# 
   851  0843                     	;# 
   852  0844                     	;# 
   853  0845                     	;# 
   854  0845                     	;# 
   855  0846                     	;# 
   856  0847                     	;# 
   857  0847                     	;# 
   858  0848                     	;# 
   859  0849                     	;# 
   860  084A                     	;# 
   861  084B                     	;# 
   862  084C                     	;# 
   863  084D                     	;# 
   864  084E                     	;# 
   865  084F                     	;# 
   866  0851                     	;# 
   867  0852                     	;# 
   868  0853                     	;# 
   869  0854                     	;# 
   870  0855                     	;# 
   871  0856                     	;# 
   872  0857                     	;# 
   873  0858                     	;# 
   874  0859                     	;# 
   875  085A                     	;# 
   876  085B                     	;# 
   877  085C                     	;# 
   878  085D                     	;# 
   879  085E                     	;# 
   880  085F                     	;# 
   881  0860                     	;# 
   882  0861                     	;# 
   883  0861                     	;# 
   884  0862                     	;# 
   885  0863                     	;# 
   886  0863                     	;# 
   887  0864                     	;# 
   888  0865                     	;# 
   889  0865                     	;# 
   890  0866                     	;# 
   891  0867                     	;# 
   892  0867                     	;# 
   893  0868                     	;# 
   894  0869                     	;# 
   895  086A                     	;# 
   896  086B                     	;# 
   897  086C                     	;# 
   898  086D                     	;# 
   899  086E                     	;# 
   900  086F                     	;# 
   901  0FE4                     	;# 
   902  0FE5                     	;# 
   903  0FE6                     	;# 
   904  0FE7                     	;# 
   905  0FE8                     	;# 
   906  0FE9                     	;# 
   907  0FEA                     	;# 
   908  0FEB                     	;# 
   909  0FED                     	;# 
   910  0FEE                     	;# 
   911  0FEF                     	;# 
   912  0000                     	;# 
   913  0001                     	;# 
   914  0002                     	;# 
   915  0003                     	;# 
   916  0004                     	;# 
   917  0005                     	;# 
   918  0006                     	;# 
   919  0007                     	;# 
   920  0008                     	;# 
   921  0009                     	;# 
   922  000A                     	;# 
   923  000B                     	;# 
   924  000C                     	;# 
   925  000D                     	;# 
   926  000E                     	;# 
   927  0010                     	;# 
   928  0011                     	;# 
   929  0012                     	;# 
   930  0013                     	;# 
   931  0014                     	;# 
   932  0015                     	;# 
   933  0016                     	;# 
   934  0016                     	;# 
   935  0017                     	;# 
   936  0018                     	;# 
   937  0019                     	;# 
   938  001A                     	;# 
   939  001B                     	;# 
   940  001C                     	;# 
   941  008C                     	;# 
   942  008D                     	;# 
   943  008E                     	;# 
   944  0090                     	;# 
   945  0091                     	;# 
   946  0092                     	;# 
   947  0093                     	;# 
   948  0094                     	;# 
   949  0095                     	;# 
   950  0096                     	;# 
   951  0097                     	;# 
   952  0098                     	;# 
   953  0099                     	;# 
   954  009A                     	;# 
   955  009B                     	;# 
   956  009B                     	;# 
   957  009C                     	;# 
   958  009D                     	;# 
   959  009E                     	;# 
   960  009F                     	;# 
   961  010C                     	;# 
   962  010D                     	;# 
   963  010E                     	;# 
   964  0111                     	;# 
   965  0112                     	;# 
   966  0113                     	;# 
   967  0114                     	;# 
   968  0115                     	;# 
   969  0116                     	;# 
   970  0117                     	;# 
   971  0118                     	;# 
   972  0119                     	;# 
   973  011A                     	;# 
   974  011B                     	;# 
   975  011C                     	;# 
   976  011D                     	;# 
   977  011D                     	;# 
   978  011D                     	;# 
   979  011E                     	;# 
   980  011F                     	;# 
   981  018C                     	;# 
   982  018D                     	;# 
   983  0191                     	;# 
   984  0191                     	;# 
   985  0192                     	;# 
   986  0193                     	;# 
   987  0193                     	;# 
   988  0193                     	;# 
   989  0194                     	;# 
   990  0195                     	;# 
   991  0196                     	;# 
   992  0197                     	;# 
   993  0199                     	;# 
   994  0199                     	;# 
   995  0199                     	;# 
   996  019A                     	;# 
   997  019A                     	;# 
   998  019A                     	;# 
   999  019B                     	;# 
  1000  019B                     	;# 
  1001  019B                     	;# 
  1002  019B                     	;# 
  1003  019B                     	;# 
  1004  019C                     	;# 
  1005  019C                     	;# 
  1006  019C                     	;# 
  1007  019D                     	;# 
  1008  019D                     	;# 
  1009  019D                     	;# 
  1010  019E                     	;# 
  1011  019E                     	;# 
  1012  019E                     	;# 
  1013  019F                     	;# 
  1014  019F                     	;# 
  1015  019F                     	;# 
  1016  019F                     	;# 
  1017  019F                     	;# 
  1018  020C                     	;# 
  1019  020D                     	;# 
  1020  020E                     	;# 
  1021  0210                     	;# 
  1022  0211                     	;# 
  1023  0211                     	;# 
  1024  0212                     	;# 
  1025  0212                     	;# 
  1026  0213                     	;# 
  1027  0213                     	;# 
  1028  0214                     	;# 
  1029  0214                     	;# 
  1030  0215                     	;# 
  1031  0215                     	;# 
  1032  0215                     	;# 
  1033  0215                     	;# 
  1034  0216                     	;# 
  1035  0216                     	;# 
  1036  0217                     	;# 
  1037  0217                     	;# 
  1038  028C                     	;# 
  1039  028D                     	;# 
  1040  028E                     	;# 
  1041  0291                     	;# 
  1042  0291                     	;# 
  1043  0292                     	;# 
  1044  0293                     	;# 
  1045  0298                     	;# 
  1046  0298                     	;# 
  1047  0299                     	;# 
  1048  029A                     	;# 
  1049  030C                     	;# 
  1050  030D                     	;# 
  1051  030E                     	;# 
  1052  0311                     	;# 
  1053  0311                     	;# 
  1054  0312                     	;# 
  1055  0313                     	;# 
  1056  038C                     	;# 
  1057  038D                     	;# 
  1058  038E                     	;# 
  1059  0390                     	;# 
  1060  0391                     	;# 
  1061  0392                     	;# 
  1062  0393                     	;# 
  1063  0394                     	;# 
  1064  0395                     	;# 
  1065  0396                     	;# 
  1066  0397                     	;# 
  1067  0398                     	;# 
  1068  0399                     	;# 
  1069  039D                     	;# 
  1070  039E                     	;# 
  1071  039F                     	;# 
  1072  0511                     	;# 
  1073  0513                     	;# 
  1074  051A                     	;# 
  1075  0811                     	;# 
  1076  0812                     	;# 
  1077  0813                     	;# 
  1078  0814                     	;# 
  1079  0815                     	;# 
  1080  0816                     	;# 
  1081  0817                     	;# 
  1082  0818                     	;# 
  1083  0819                     	;# 
  1084  081A                     	;# 
  1085  081B                     	;# 
  1086  081C                     	;# 
  1087  081D                     	;# 
  1088  081E                     	;# 
  1089  081F                     	;# 
  1090  0820                     	;# 
  1091  0821                     	;# 
  1092  0821                     	;# 
  1093  0822                     	;# 
  1094  0823                     	;# 
  1095  0823                     	;# 
  1096  0824                     	;# 
  1097  0825                     	;# 
  1098  0825                     	;# 
  1099  0826                     	;# 
  1100  0827                     	;# 
  1101  0827                     	;# 
  1102  0828                     	;# 
  1103  0829                     	;# 
  1104  082A                     	;# 
  1105  082B                     	;# 
  1106  082C                     	;# 
  1107  082D                     	;# 
  1108  082E                     	;# 
  1109  082F                     	;# 
  1110  0831                     	;# 
  1111  0832                     	;# 
  1112  0833                     	;# 
  1113  0834                     	;# 
  1114  0835                     	;# 
  1115  0836                     	;# 
  1116  0837                     	;# 
  1117  0838                     	;# 
  1118  0839                     	;# 
  1119  083A                     	;# 
  1120  083B                     	;# 
  1121  083C                     	;# 
  1122  083D                     	;# 
  1123  083E                     	;# 
  1124  083F                     	;# 
  1125  0840                     	;# 
  1126  0841                     	;# 
  1127  0841                     	;# 
  1128  0842                     	;# 
  1129  0843                     	;# 
  1130  0843                     	;# 
  1131  0844                     	;# 
  1132  0845                     	;# 
  1133  0845                     	;# 
  1134  0846                     	;# 
  1135  0847                     	;# 
  1136  0847                     	;# 
  1137  0848                     	;# 
  1138  0849                     	;# 
  1139  084A                     	;# 
  1140  084B                     	;# 
  1141  084C                     	;# 
  1142  084D                     	;# 
  1143  084E                     	;# 
  1144  084F                     	;# 
  1145  0851                     	;# 
  1146  0852                     	;# 
  1147  0853                     	;# 
  1148  0854                     	;# 
  1149  0855                     	;# 
  1150  0856                     	;# 
  1151  0857                     	;# 
  1152  0858                     	;# 
  1153  0859                     	;# 
  1154  085A                     	;# 
  1155  085B                     	;# 
  1156  085C                     	;# 
  1157  085D                     	;# 
  1158  085E                     	;# 
  1159  085F                     	;# 
  1160  0860                     	;# 
  1161  0861                     	;# 
  1162  0861                     	;# 
  1163  0862                     	;# 
  1164  0863                     	;# 
  1165  0863                     	;# 
  1166  0864                     	;# 
  1167  0865                     	;# 
  1168  0865                     	;# 
  1169  0866                     	;# 
  1170  0867                     	;# 
  1171  0867                     	;# 
  1172  0868                     	;# 
  1173  0869                     	;# 
  1174  086A                     	;# 
  1175  086B                     	;# 
  1176  086C                     	;# 
  1177  086D                     	;# 
  1178  086E                     	;# 
  1179  086F                     	;# 
  1180  0FE4                     	;# 
  1181  0FE5                     	;# 
  1182  0FE6                     	;# 
  1183  0FE7                     	;# 
  1184  0FE8                     	;# 
  1185  0FE9                     	;# 
  1186  0FEA                     	;# 
  1187  0FEB                     	;# 
  1188  0FED                     	;# 
  1189  0FEE                     	;# 
  1190  0FEF                     	;# 
  1191  0000                     	;# 
  1192  0001                     	;# 
  1193  0002                     	;# 
  1194  0003                     	;# 
  1195  0004                     	;# 
  1196  0005                     	;# 
  1197  0006                     	;# 
  1198  0007                     	;# 
  1199  0008                     	;# 
  1200  0009                     	;# 
  1201  000A                     	;# 
  1202  000B                     	;# 
  1203  000C                     	;# 
  1204  000D                     	;# 
  1205  000E                     	;# 
  1206  0010                     	;# 
  1207  0011                     	;# 
  1208  0012                     	;# 
  1209  0013                     	;# 
  1210  0014                     	;# 
  1211  0015                     	;# 
  1212  0016                     	;# 
  1213  0016                     	;# 
  1214  0017                     	;# 
  1215  0018                     	;# 
  1216  0019                     	;# 
  1217  001A                     	;# 
  1218  001B                     	;# 
  1219  001C                     	;# 
  1220  008C                     	;# 
  1221  008D                     	;# 
  1222  008E                     	;# 
  1223  0090                     	;# 
  1224  0091                     	;# 
  1225  0092                     	;# 
  1226  0093                     	;# 
  1227  0094                     	;# 
  1228  0095                     	;# 
  1229  0096                     	;# 
  1230  0097                     	;# 
  1231  0098                     	;# 
  1232  0099                     	;# 
  1233  009A                     	;# 
  1234  009B                     	;# 
  1235  009B                     	;# 
  1236  009C                     	;# 
  1237  009D                     	;# 
  1238  009E                     	;# 
  1239  009F                     	;# 
  1240  010C                     	;# 
  1241  010D                     	;# 
  1242  010E                     	;# 
  1243  0111                     	;# 
  1244  0112                     	;# 
  1245  0113                     	;# 
  1246  0114                     	;# 
  1247  0115                     	;# 
  1248  0116                     	;# 
  1249  0117                     	;# 
  1250  0118                     	;# 
  1251  0119                     	;# 
  1252  011A                     	;# 
  1253  011B                     	;# 
  1254  011C                     	;# 
  1255  011D                     	;# 
  1256  011D                     	;# 
  1257  011D                     	;# 
  1258  011E                     	;# 
  1259  011F                     	;# 
  1260  018C                     	;# 
  1261  018D                     	;# 
  1262  0191                     	;# 
  1263  0191                     	;# 
  1264  0192                     	;# 
  1265  0193                     	;# 
  1266  0193                     	;# 
  1267  0193                     	;# 
  1268  0194                     	;# 
  1269  0195                     	;# 
  1270  0196                     	;# 
  1271  0197                     	;# 
  1272  0199                     	;# 
  1273  0199                     	;# 
  1274  0199                     	;# 
  1275  019A                     	;# 
  1276  019A                     	;# 
  1277  019A                     	;# 
  1278  019B                     	;# 
  1279  019B                     	;# 
  1280  019B                     	;# 
  1281  019B                     	;# 
  1282  019B                     	;# 
  1283  019C                     	;# 
  1284  019C                     	;# 
  1285  019C                     	;# 
  1286  019D                     	;# 
  1287  019D                     	;# 
  1288  019D                     	;# 
  1289  019E                     	;# 
  1290  019E                     	;# 
  1291  019E                     	;# 
  1292  019F                     	;# 
  1293  019F                     	;# 
  1294  019F                     	;# 
  1295  019F                     	;# 
  1296  019F                     	;# 
  1297  020C                     	;# 
  1298  020D                     	;# 
  1299  020E                     	;# 
  1300  0210                     	;# 
  1301  0211                     	;# 
  1302  0211                     	;# 
  1303  0212                     	;# 
  1304  0212                     	;# 
  1305  0213                     	;# 
  1306  0213                     	;# 
  1307  0214                     	;# 
  1308  0214                     	;# 
  1309  0215                     	;# 
  1310  0215                     	;# 
  1311  0215                     	;# 
  1312  0215                     	;# 
  1313  0216                     	;# 
  1314  0216                     	;# 
  1315  0217                     	;# 
  1316  0217                     	;# 
  1317  028C                     	;# 
  1318  028D                     	;# 
  1319  028E                     	;# 
  1320  0291                     	;# 
  1321  0291                     	;# 
  1322  0292                     	;# 
  1323  0293                     	;# 
  1324  0298                     	;# 
  1325  0298                     	;# 
  1326  0299                     	;# 
  1327  029A                     	;# 
  1328  030C                     	;# 
  1329  030D                     	;# 
  1330  030E                     	;# 
  1331  0311                     	;# 
  1332  0311                     	;# 
  1333  0312                     	;# 
  1334  0313                     	;# 
  1335  038C                     	;# 
  1336  038D                     	;# 
  1337  038E                     	;# 
  1338  0390                     	;# 
  1339  0391                     	;# 
  1340  0392                     	;# 
  1341  0393                     	;# 
  1342  0394                     	;# 
  1343  0395                     	;# 
  1344  0396                     	;# 
  1345  0397                     	;# 
  1346  0398                     	;# 
  1347  0399                     	;# 
  1348  039D                     	;# 
  1349  039E                     	;# 
  1350  039F                     	;# 
  1351  0511                     	;# 
  1352  0513                     	;# 
  1353  051A                     	;# 
  1354  0811                     	;# 
  1355  0812                     	;# 
  1356  0813                     	;# 
  1357  0814                     	;# 
  1358  0815                     	;# 
  1359  0816                     	;# 
  1360  0817                     	;# 
  1361  0818                     	;# 
  1362  0819                     	;# 
  1363  081A                     	;# 
  1364  081B                     	;# 
  1365  081C                     	;# 
  1366  081D                     	;# 
  1367  081E                     	;# 
  1368  081F                     	;# 
  1369  0820                     	;# 
  1370  0821                     	;# 
  1371  0821                     	;# 
  1372  0822                     	;# 
  1373  0823                     	;# 
  1374  0823                     	;# 
  1375  0824                     	;# 
  1376  0825                     	;# 
  1377  0825                     	;# 
  1378  0826                     	;# 
  1379  0827                     	;# 
  1380  0827                     	;# 
  1381  0828                     	;# 
  1382  0829                     	;# 
  1383  082A                     	;# 
  1384  082B                     	;# 
  1385  082C                     	;# 
  1386  082D                     	;# 
  1387  082E                     	;# 
  1388  082F                     	;# 
  1389  0831                     	;# 
  1390  0832                     	;# 
  1391  0833                     	;# 
  1392  0834                     	;# 
  1393  0835                     	;# 
  1394  0836                     	;# 
  1395  0837                     	;# 
  1396  0838                     	;# 
  1397  0839                     	;# 
  1398  083A                     	;# 
  1399  083B                     	;# 
  1400  083C                     	;# 
  1401  083D                     	;# 
  1402  083E                     	;# 
  1403  083F                     	;# 
  1404  0840                     	;# 
  1405  0841                     	;# 
  1406  0841                     	;# 
  1407  0842                     	;# 
  1408  0843                     	;# 
  1409  0843                     	;# 
  1410  0844                     	;# 
  1411  0845                     	;# 
  1412  0845                     	;# 
  1413  0846                     	;# 
  1414  0847                     	;# 
  1415  0847                     	;# 
  1416  0848                     	;# 
  1417  0849                     	;# 
  1418  084A                     	;# 
  1419  084B                     	;# 
  1420  084C                     	;# 
  1421  084D                     	;# 
  1422  084E                     	;# 
  1423  084F                     	;# 
  1424  0851                     	;# 
  1425  0852                     	;# 
  1426  0853                     	;# 
  1427  0854                     	;# 
  1428  0855                     	;# 
  1429  0856                     	;# 
  1430  0857                     	;# 
  1431  0858                     	;# 
  1432  0859                     	;# 
  1433  085A                     	;# 
  1434  085B                     	;# 
  1435  085C                     	;# 
  1436  085D                     	;# 
  1437  085E                     	;# 
  1438  085F                     	;# 
  1439  0860                     	;# 
  1440  0861                     	;# 
  1441  0861                     	;# 
  1442  0862                     	;# 
  1443  0863                     	;# 
  1444  0863                     	;# 
  1445  0864                     	;# 
  1446  0865                     	;# 
  1447  0865                     	;# 
  1448  0866                     	;# 
  1449  0867                     	;# 
  1450  0867                     	;# 
  1451  0868                     	;# 
  1452  0869                     	;# 
  1453  086A                     	;# 
  1454  086B                     	;# 
  1455  086C                     	;# 
  1456  086D                     	;# 
  1457  086E                     	;# 
  1458  086F                     	;# 
  1459  0FE4                     	;# 
  1460  0FE5                     	;# 
  1461  0FE6                     	;# 
  1462  0FE7                     	;# 
  1463  0FE8                     	;# 
  1464  0FE9                     	;# 
  1465  0FEA                     	;# 
  1466  0FEB                     	;# 
  1467  0FED                     	;# 
  1468  0FEE                     	;# 
  1469  0FEF                     	;# 
  1470  0000                     	;# 
  1471  0001                     	;# 
  1472  0002                     	;# 
  1473  0003                     	;# 
  1474  0004                     	;# 
  1475  0005                     	;# 
  1476  0006                     	;# 
  1477  0007                     	;# 
  1478  0008                     	;# 
  1479  0009                     	;# 
  1480  000A                     	;# 
  1481  000B                     	;# 
  1482  000C                     	;# 
  1483  000D                     	;# 
  1484  000E                     	;# 
  1485  0010                     	;# 
  1486  0011                     	;# 
  1487  0012                     	;# 
  1488  0013                     	;# 
  1489  0014                     	;# 
  1490  0015                     	;# 
  1491  0016                     	;# 
  1492  0016                     	;# 
  1493  0017                     	;# 
  1494  0018                     	;# 
  1495  0019                     	;# 
  1496  001A                     	;# 
  1497  001B                     	;# 
  1498  001C                     	;# 
  1499  008C                     	;# 
  1500  008D                     	;# 
  1501  008E                     	;# 
  1502  0090                     	;# 
  1503  0091                     	;# 
  1504  0092                     	;# 
  1505  0093                     	;# 
  1506  0094                     	;# 
  1507  0095                     	;# 
  1508  0096                     	;# 
  1509  0097                     	;# 
  1510  0098                     	;# 
  1511  0099                     	;# 
  1512  009A                     	;# 
  1513  009B                     	;# 
  1514  009B                     	;# 
  1515  009C                     	;# 
  1516  009D                     	;# 
  1517  009E                     	;# 
  1518  009F                     	;# 
  1519  010C                     	;# 
  1520  010D                     	;# 
  1521  010E                     	;# 
  1522  0111                     	;# 
  1523  0112                     	;# 
  1524  0113                     	;# 
  1525  0114                     	;# 
  1526  0115                     	;# 
  1527  0116                     	;# 
  1528  0117                     	;# 
  1529  0118                     	;# 
  1530  0119                     	;# 
  1531  011A                     	;# 
  1532  011B                     	;# 
  1533  011C                     	;# 
  1534  011D                     	;# 
  1535  011D                     	;# 
  1536  011D                     	;# 
  1537  011E                     	;# 
  1538  011F                     	;# 
  1539  018C                     	;# 
  1540  018D                     	;# 
  1541  0191                     	;# 
  1542  0191                     	;# 
  1543  0192                     	;# 
  1544  0193                     	;# 
  1545  0193                     	;# 
  1546  0193                     	;# 
  1547  0194                     	;# 
  1548  0195                     	;# 
  1549  0196                     	;# 
  1550  0197                     	;# 
  1551  0199                     	;# 
  1552  0199                     	;# 
  1553  0199                     	;# 
  1554  019A                     	;# 
  1555  019A                     	;# 
  1556  019A                     	;# 
  1557  019B                     	;# 
  1558  019B                     	;# 
  1559  019B                     	;# 
  1560  019B                     	;# 
  1561  019B                     	;# 
  1562  019C                     	;# 
  1563  019C                     	;# 
  1564  019C                     	;# 
  1565  019D                     	;# 
  1566  019D                     	;# 
  1567  019D                     	;# 
  1568  019E                     	;# 
  1569  019E                     	;# 
  1570  019E                     	;# 
  1571  019F                     	;# 
  1572  019F                     	;# 
  1573  019F                     	;# 
  1574  019F                     	;# 
  1575  019F                     	;# 
  1576  020C                     	;# 
  1577  020D                     	;# 
  1578  020E                     	;# 
  1579  0210                     	;# 
  1580  0211                     	;# 
  1581  0211                     	;# 
  1582  0212                     	;# 
  1583  0212                     	;# 
  1584  0213                     	;# 
  1585  0213                     	;# 
  1586  0214                     	;# 
  1587  0214                     	;# 
  1588  0215                     	;# 
  1589  0215                     	;# 
  1590  0215                     	;# 
  1591  0215                     	;# 
  1592  0216                     	;# 
  1593  0216                     	;# 
  1594  0217                     	;# 
  1595  0217                     	;# 
  1596  028C                     	;# 
  1597  028D                     	;# 
  1598  028E                     	;# 
  1599  0291                     	;# 
  1600  0291                     	;# 
  1601  0292                     	;# 
  1602  0293                     	;# 
  1603  0298                     	;# 
  1604  0298                     	;# 
  1605  0299                     	;# 
  1606  029A                     	;# 
  1607  030C                     	;# 
  1608  030D                     	;# 
  1609  030E                     	;# 
  1610  0311                     	;# 
  1611  0311                     	;# 
  1612  0312                     	;# 
  1613  0313                     	;# 
  1614  038C                     	;# 
  1615  038D                     	;# 
  1616  038E                     	;# 
  1617  0390                     	;# 
  1618  0391                     	;# 
  1619  0392                     	;# 
  1620  0393                     	;# 
  1621  0394                     	;# 
  1622  0395                     	;# 
  1623  0396                     	;# 
  1624  0397                     	;# 
  1625  0398                     	;# 
  1626  0399                     	;# 
  1627  039D                     	;# 
  1628  039E                     	;# 
  1629  039F                     	;# 
  1630  0511                     	;# 
  1631  0513                     	;# 
  1632  051A                     	;# 
  1633  0811                     	;# 
  1634  0812                     	;# 
  1635  0813                     	;# 
  1636  0814                     	;# 
  1637  0815                     	;# 
  1638  0816                     	;# 
  1639  0817                     	;# 
  1640  0818                     	;# 
  1641  0819                     	;# 
  1642  081A                     	;# 
  1643  081B                     	;# 
  1644  081C                     	;# 
  1645  081D                     	;# 
  1646  081E                     	;# 
  1647  081F                     	;# 
  1648  0820                     	;# 
  1649  0821                     	;# 
  1650  0821                     	;# 
  1651  0822                     	;# 
  1652  0823                     	;# 
  1653  0823                     	;# 
  1654  0824                     	;# 
  1655  0825                     	;# 
  1656  0825                     	;# 
  1657  0826                     	;# 
  1658  0827                     	;# 
  1659  0827                     	;# 
  1660  0828                     	;# 
  1661  0829                     	;# 
  1662  082A                     	;# 
  1663  082B                     	;# 
  1664  082C                     	;# 
  1665  082D                     	;# 
  1666  082E                     	;# 
  1667  082F                     	;# 
  1668  0831                     	;# 
  1669  0832                     	;# 
  1670  0833                     	;# 
  1671  0834                     	;# 
  1672  0835                     	;# 
  1673  0836                     	;# 
  1674  0837                     	;# 
  1675  0838                     	;# 
  1676  0839                     	;# 
  1677  083A                     	;# 
  1678  083B                     	;# 
  1679  083C                     	;# 
  1680  083D                     	;# 
  1681  083E                     	;# 
  1682  083F                     	;# 
  1683  0840                     	;# 
  1684  0841                     	;# 
  1685  0841                     	;# 
  1686  0842                     	;# 
  1687  0843                     	;# 
  1688  0843                     	;# 
  1689  0844                     	;# 
  1690  0845                     	;# 
  1691  0845                     	;# 
  1692  0846                     	;# 
  1693  0847                     	;# 
  1694  0847                     	;# 
  1695  0848                     	;# 
  1696  0849                     	;# 
  1697  084A                     	;# 
  1698  084B                     	;# 
  1699  084C                     	;# 
  1700  084D                     	;# 
  1701  084E                     	;# 
  1702  084F                     	;# 
  1703  0851                     	;# 
  1704  0852                     	;# 
  1705  0853                     	;# 
  1706  0854                     	;# 
  1707  0855                     	;# 
  1708  0856                     	;# 
  1709  0857                     	;# 
  1710  0858                     	;# 
  1711  0859                     	;# 
  1712  085A                     	;# 
  1713  085B                     	;# 
  1714  085C                     	;# 
  1715  085D                     	;# 
  1716  085E                     	;# 
  1717  085F                     	;# 
  1718  0860                     	;# 
  1719  0861                     	;# 
  1720  0861                     	;# 
  1721  0862                     	;# 
  1722  0863                     	;# 
  1723  0863                     	;# 
  1724  0864                     	;# 
  1725  0865                     	;# 
  1726  0865                     	;# 
  1727  0866                     	;# 
  1728  0867                     	;# 
  1729  0867                     	;# 
  1730  0868                     	;# 
  1731  0869                     	;# 
  1732  086A                     	;# 
  1733  086B                     	;# 
  1734  086C                     	;# 
  1735  086D                     	;# 
  1736  086E                     	;# 
  1737  086F                     	;# 
  1738  0FE4                     	;# 
  1739  0FE5                     	;# 
  1740  0FE6                     	;# 
  1741  0FE7                     	;# 
  1742  0FE8                     	;# 
  1743  0FE9                     	;# 
  1744  0FEA                     	;# 
  1745  0FEB                     	;# 
  1746  0FED                     	;# 
  1747  0FEE                     	;# 
  1748  0FEF                     	;# 
  1749  0000                     	;# 
  1750  0001                     	;# 
  1751  0002                     	;# 
  1752  0003                     	;# 
  1753  0004                     	;# 
  1754  0005                     	;# 
  1755  0006                     	;# 
  1756  0007                     	;# 
  1757  0008                     	;# 
  1758  0009                     	;# 
  1759  000A                     	;# 
  1760  000B                     	;# 
  1761  000C                     	;# 
  1762  000D                     	;# 
  1763  000E                     	;# 
  1764  0010                     	;# 
  1765  0011                     	;# 
  1766  0012                     	;# 
  1767  0013                     	;# 
  1768  0014                     	;# 
  1769  0015                     	;# 
  1770  0016                     	;# 
  1771  0016                     	;# 
  1772  0017                     	;# 
  1773  0018                     	;# 
  1774  0019                     	;# 
  1775  001A                     	;# 
  1776  001B                     	;# 
  1777  001C                     	;# 
  1778  008C                     	;# 
  1779  008D                     	;# 
  1780  008E                     	;# 
  1781  0090                     	;# 
  1782  0091                     	;# 
  1783  0092                     	;# 
  1784  0093                     	;# 
  1785  0094                     	;# 
  1786  0095                     	;# 
  1787  0096                     	;# 
  1788  0097                     	;# 
  1789  0098                     	;# 
  1790  0099                     	;# 
  1791  009A                     	;# 
  1792  009B                     	;# 
  1793  009B                     	;# 
  1794  009C                     	;# 
  1795  009D                     	;# 
  1796  009E                     	;# 
  1797  009F                     	;# 
  1798  010C                     	;# 
  1799  010D                     	;# 
  1800  010E                     	;# 
  1801  0111                     	;# 
  1802  0112                     	;# 
  1803  0113                     	;# 
  1804  0114                     	;# 
  1805  0115                     	;# 
  1806  0116                     	;# 
  1807  0117                     	;# 
  1808  0118                     	;# 
  1809  0119                     	;# 
  1810  011A                     	;# 
  1811  011B                     	;# 
  1812  011C                     	;# 
  1813  011D                     	;# 
  1814  011D                     	;# 
  1815  011D                     	;# 
  1816  011E                     	;# 
  1817  011F                     	;# 
  1818  018C                     	;# 
  1819  018D                     	;# 
  1820  0191                     	;# 
  1821  0191                     	;# 
  1822  0192                     	;# 
  1823  0193                     	;# 
  1824  0193                     	;# 
  1825  0193                     	;# 
  1826  0194                     	;# 
  1827  0195                     	;# 
  1828  0196                     	;# 
  1829  0197                     	;# 
  1830  0199                     	;# 
  1831  0199                     	;# 
  1832  0199                     	;# 
  1833  019A                     	;# 
  1834  019A                     	;# 
  1835  019A                     	;# 
  1836  019B                     	;# 
  1837  019B                     	;# 
  1838  019B                     	;# 
  1839  019B                     	;# 
  1840  019B                     	;# 
  1841  019C                     	;# 
  1842  019C                     	;# 
  1843  019C                     	;# 
  1844  019D                     	;# 
  1845  019D                     	;# 
  1846  019D                     	;# 
  1847  019E                     	;# 
  1848  019E                     	;# 
  1849  019E                     	;# 
  1850  019F                     	;# 
  1851  019F                     	;# 
  1852  019F                     	;# 
  1853  019F                     	;# 
  1854  019F                     	;# 
  1855  020C                     	;# 
  1856  020D                     	;# 
  1857  020E                     	;# 
  1858  0210                     	;# 
  1859  0211                     	;# 
  1860  0211                     	;# 
  1861  0212                     	;# 
  1862  0212                     	;# 
  1863  0213                     	;# 
  1864  0213                     	;# 
  1865  0214                     	;# 
  1866  0214                     	;# 
  1867  0215                     	;# 
  1868  0215                     	;# 
  1869  0215                     	;# 
  1870  0215                     	;# 
  1871  0216                     	;# 
  1872  0216                     	;# 
  1873  0217                     	;# 
  1874  0217                     	;# 
  1875  028C                     	;# 
  1876  028D                     	;# 
  1877  028E                     	;# 
  1878  0291                     	;# 
  1879  0291                     	;# 
  1880  0292                     	;# 
  1881  0293                     	;# 
  1882  0298                     	;# 
  1883  0298                     	;# 
  1884  0299                     	;# 
  1885  029A                     	;# 
  1886  030C                     	;# 
  1887  030D                     	;# 
  1888  030E                     	;# 
  1889  0311                     	;# 
  1890  0311                     	;# 
  1891  0312                     	;# 
  1892  0313                     	;# 
  1893  038C                     	;# 
  1894  038D                     	;# 
  1895  038E                     	;# 
  1896  0390                     	;# 
  1897  0391                     	;# 
  1898  0392                     	;# 
  1899  0393                     	;# 
  1900  0394                     	;# 
  1901  0395                     	;# 
  1902  0396                     	;# 
  1903  0397                     	;# 
  1904  0398                     	;# 
  1905  0399                     	;# 
  1906  039D                     	;# 
  1907  039E                     	;# 
  1908  039F                     	;# 
  1909  0511                     	;# 
  1910  0513                     	;# 
  1911  051A                     	;# 
  1912  0811                     	;# 
  1913  0812                     	;# 
  1914  0813                     	;# 
  1915  0814                     	;# 
  1916  0815                     	;# 
  1917  0816                     	;# 
  1918  0817                     	;# 
  1919  0818                     	;# 
  1920  0819                     	;# 
  1921  081A                     	;# 
  1922  081B                     	;# 
  1923  081C                     	;# 
  1924  081D                     	;# 
  1925  081E                     	;# 
  1926  081F                     	;# 
  1927  0820                     	;# 
  1928  0821                     	;# 
  1929  0821                     	;# 
  1930  0822                     	;# 
  1931  0823                     	;# 
  1932  0823                     	;# 
  1933  0824                     	;# 
  1934  0825                     	;# 
  1935  0825                     	;# 
  1936  0826                     	;# 
  1937  0827                     	;# 
  1938  0827                     	;# 
  1939  0828                     	;# 
  1940  0829                     	;# 
  1941  082A                     	;# 
  1942  082B                     	;# 
  1943  082C                     	;# 
  1944  082D                     	;# 
  1945  082E                     	;# 
  1946  082F                     	;# 
  1947  0831                     	;# 
  1948  0832                     	;# 
  1949  0833                     	;# 
  1950  0834                     	;# 
  1951  0835                     	;# 
  1952  0836                     	;# 
  1953  0837                     	;# 
  1954  0838                     	;# 
  1955  0839                     	;# 
  1956  083A                     	;# 
  1957  083B                     	;# 
  1958  083C                     	;# 
  1959  083D                     	;# 
  1960  083E                     	;# 
  1961  083F                     	;# 
  1962  0840                     	;# 
  1963  0841                     	;# 
  1964  0841                     	;# 
  1965  0842                     	;# 
  1966  0843                     	;# 
  1967  0843                     	;# 
  1968  0844                     	;# 
  1969  0845                     	;# 
  1970  0845                     	;# 
  1971  0846                     	;# 
  1972  0847                     	;# 
  1973  0847                     	;# 
  1974  0848                     	;# 
  1975  0849                     	;# 
  1976  084A                     	;# 
  1977  084B                     	;# 
  1978  084C                     	;# 
  1979  084D                     	;# 
  1980  084E                     	;# 
  1981  084F                     	;# 
  1982  0851                     	;# 
  1983  0852                     	;# 
  1984  0853                     	;# 
  1985  0854                     	;# 
  1986  0855                     	;# 
  1987  0856                     	;# 
  1988  0857                     	;# 
  1989  0858                     	;# 
  1990  0859                     	;# 
  1991  085A                     	;# 
  1992  085B                     	;# 
  1993  085C                     	;# 
  1994  085D                     	;# 
  1995  085E                     	;# 
  1996  085F                     	;# 
  1997  0860                     	;# 
  1998  0861                     	;# 
  1999  0861                     	;# 
  2000  0862                     	;# 
  2001  0863                     	;# 
  2002  0863                     	;# 
  2003  0864                     	;# 
  2004  0865                     	;# 
  2005  0865                     	;# 
  2006  0866                     	;# 
  2007  0867                     	;# 
  2008  0867                     	;# 
  2009  0868                     	;# 
  2010  0869                     	;# 
  2011  086A                     	;# 
  2012  086B                     	;# 
  2013  086C                     	;# 
  2014  086D                     	;# 
  2015  086E                     	;# 
  2016  086F                     	;# 
  2017  0FE4                     	;# 
  2018  0FE5                     	;# 
  2019  0FE6                     	;# 
  2020  0FE7                     	;# 
  2021  0FE8                     	;# 
  2022  0FE9                     	;# 
  2023  0FEA                     	;# 
  2024  0FEB                     	;# 
  2025  0FED                     	;# 
  2026  0FEE                     	;# 
  2027  0FEF                     	;# 
  2028  0000                     	;# 
  2029  0001                     	;# 
  2030  0002                     	;# 
  2031  0003                     	;# 
  2032  0004                     	;# 
  2033  0005                     	;# 
  2034  0006                     	;# 
  2035  0007                     	;# 
  2036  0008                     	;# 
  2037  0009                     	;# 
  2038  000A                     	;# 
  2039  000B                     	;# 
  2040  000C                     	;# 
  2041  000D                     	;# 
  2042  000E                     	;# 
  2043  0010                     	;# 
  2044  0011                     	;# 
  2045  0012                     	;# 
  2046  0013                     	;# 
  2047  0014                     	;# 
  2048  0015                     	;# 
  2049  0016                     	;# 
  2050  0016                     	;# 
  2051  0017                     	;# 
  2052  0018                     	;# 
  2053  0019                     	;# 
  2054  001A                     	;# 
  2055  001B                     	;# 
  2056  001C                     	;# 
  2057  008C                     	;# 
  2058  008D                     	;# 
  2059  008E                     	;# 
  2060  0090                     	;# 
  2061  0091                     	;# 
  2062  0092                     	;# 
  2063  0093                     	;# 
  2064  0094                     	;# 
  2065  0095                     	;# 
  2066  0096                     	;# 
  2067  0097                     	;# 
  2068  0098                     	;# 
  2069  0099                     	;# 
  2070  009A                     	;# 
  2071  009B                     	;# 
  2072  009B                     	;# 
  2073  009C                     	;# 
  2074  009D                     	;# 
  2075  009E                     	;# 
  2076  009F                     	;# 
  2077  010C                     	;# 
  2078  010D                     	;# 
  2079  010E                     	;# 
  2080  0111                     	;# 
  2081  0112                     	;# 
  2082  0113                     	;# 
  2083  0114                     	;# 
  2084  0115                     	;# 
  2085  0116                     	;# 
  2086  0117                     	;# 
  2087  0118                     	;# 
  2088  0119                     	;# 
  2089  011A                     	;# 
  2090  011B                     	;# 
  2091  011C                     	;# 
  2092  011D                     	;# 
  2093  011D                     	;# 
  2094  011D                     	;# 
  2095  011E                     	;# 
  2096  011F                     	;# 
  2097  018C                     	;# 
  2098  018D                     	;# 
  2099  0191                     	;# 
  2100  0191                     	;# 
  2101  0192                     	;# 
  2102  0193                     	;# 
  2103  0193                     	;# 
  2104  0193                     	;# 
  2105  0194                     	;# 
  2106  0195                     	;# 
  2107  0196                     	;# 
  2108  0197                     	;# 
  2109  0199                     	;# 
  2110  0199                     	;# 
  2111  0199                     	;# 
  2112  019A                     	;# 
  2113  019A                     	;# 
  2114  019A                     	;# 
  2115  019B                     	;# 
  2116  019B                     	;# 
  2117  019B                     	;# 
  2118  019B                     	;# 
  2119  019B                     	;# 
  2120  019C                     	;# 
  2121  019C                     	;# 
  2122  019C                     	;# 
  2123  019D                     	;# 
  2124  019D                     	;# 
  2125  019D                     	;# 
  2126  019E                     	;# 
  2127  019E                     	;# 
  2128  019E                     	;# 
  2129  019F                     	;# 
  2130  019F                     	;# 
  2131  019F                     	;# 
  2132  019F                     	;# 
  2133  019F                     	;# 
  2134  020C                     	;# 
  2135  020D                     	;# 
  2136  020E                     	;# 
  2137  0210                     	;# 
  2138  0211                     	;# 
  2139  0211                     	;# 
  2140  0212                     	;# 
  2141  0212                     	;# 
  2142  0213                     	;# 
  2143  0213                     	;# 
  2144  0214                     	;# 
  2145  0214                     	;# 
  2146  0215                     	;# 
  2147  0215                     	;# 
  2148  0215                     	;# 
  2149  0215                     	;# 
  2150  0216                     	;# 
  2151  0216                     	;# 
  2152  0217                     	;# 
  2153  0217                     	;# 
  2154  028C                     	;# 
  2155  028D                     	;# 
  2156  028E                     	;# 
  2157  0291                     	;# 
  2158  0291                     	;# 
  2159  0292                     	;# 
  2160  0293                     	;# 
  2161  0298                     	;# 
  2162  0298                     	;# 
  2163  0299                     	;# 
  2164  029A                     	;# 
  2165  030C                     	;# 
  2166  030D                     	;# 
  2167  030E                     	;# 
  2168  0311                     	;# 
  2169  0311                     	;# 
  2170  0312                     	;# 
  2171  0313                     	;# 
  2172  038C                     	;# 
  2173  038D                     	;# 
  2174  038E                     	;# 
  2175  0390                     	;# 
  2176  0391                     	;# 
  2177  0392                     	;# 
  2178  0393                     	;# 
  2179  0394                     	;# 
  2180  0395                     	;# 
  2181  0396                     	;# 
  2182  0397                     	;# 
  2183  0398                     	;# 
  2184  0399                     	;# 
  2185  039D                     	;# 
  2186  039E                     	;# 
  2187  039F                     	;# 
  2188  0511                     	;# 
  2189  0513                     	;# 
  2190  051A                     	;# 
  2191  0811                     	;# 
  2192  0812                     	;# 
  2193  0813                     	;# 
  2194  0814                     	;# 
  2195  0815                     	;# 
  2196  0816                     	;# 
  2197  0817                     	;# 
  2198  0818                     	;# 
  2199  0819                     	;# 
  2200  081A                     	;# 
  2201  081B                     	;# 
  2202  081C                     	;# 
  2203  081D                     	;# 
  2204  081E                     	;# 
  2205  081F                     	;# 
  2206  0820                     	;# 
  2207  0821                     	;# 
  2208  0821                     	;# 
  2209  0822                     	;# 
  2210  0823                     	;# 
  2211  0823                     	;# 
  2212  0824                     	;# 
  2213  0825                     	;# 
  2214  0825                     	;# 
  2215  0826                     	;# 
  2216  0827                     	;# 
  2217  0827                     	;# 
  2218  0828                     	;# 
  2219  0829                     	;# 
  2220  082A                     	;# 
  2221  082B                     	;# 
  2222  082C                     	;# 
  2223  082D                     	;# 
  2224  082E                     	;# 
  2225  082F                     	;# 
  2226  0831                     	;# 
  2227  0832                     	;# 
  2228  0833                     	;# 
  2229  0834                     	;# 
  2230  0835                     	;# 
  2231  0836                     	;# 
  2232  0837                     	;# 
  2233  0838                     	;# 
  2234  0839                     	;# 
  2235  083A                     	;# 
  2236  083B                     	;# 
  2237  083C                     	;# 
  2238  083D                     	;# 
  2239  083E                     	;# 
  2240  083F                     	;# 
  2241  0840                     	;# 
  2242  0841                     	;# 
  2243  0841                     	;# 
  2244  0842                     	;# 
  2245  0843                     	;# 
  2246  0843                     	;# 
  2247  0844                     	;# 
  2248  0845                     	;# 
  2249  0845                     	;# 
  2250  0846                     	;# 
  2251  0847                     	;# 
  2252  0847                     	;# 
  2253  0848                     	;# 
  2254  0849                     	;# 
  2255  084A                     	;# 
  2256  084B                     	;# 
  2257  084C                     	;# 
  2258  084D                     	;# 
  2259  084E                     	;# 
  2260  084F                     	;# 
  2261  0851                     	;# 
  2262  0852                     	;# 
  2263  0853                     	;# 
  2264  0854                     	;# 
  2265  0855                     	;# 
  2266  0856                     	;# 
  2267  0857                     	;# 
  2268  0858                     	;# 
  2269  0859                     	;# 
  2270  085A                     	;# 
  2271  085B                     	;# 
  2272  085C                     	;# 
  2273  085D                     	;# 
  2274  085E                     	;# 
  2275  085F                     	;# 
  2276  0860                     	;# 
  2277  0861                     	;# 
  2278  0861                     	;# 
  2279  0862                     	;# 
  2280  0863                     	;# 
  2281  0863                     	;# 
  2282  0864                     	;# 
  2283  0865                     	;# 
  2284  0865                     	;# 
  2285  0866                     	;# 
  2286  0867                     	;# 
  2287  0867                     	;# 
  2288  0868                     	;# 
  2289  0869                     	;# 
  2290  086A                     	;# 
  2291  086B                     	;# 
  2292  086C                     	;# 
  2293  086D                     	;# 
  2294  086E                     	;# 
  2295  086F                     	;# 
  2296  0FE4                     	;# 
  2297  0FE5                     	;# 
  2298  0FE6                     	;# 
  2299  0FE7                     	;# 
  2300  0FE8                     	;# 
  2301  0FE9                     	;# 
  2302  0FEA                     	;# 
  2303  0FEB                     	;# 
  2304  0FED                     	;# 
  2305  0FEE                     	;# 
  2306  0FEF                     	;# 
  2307  0000                     	;# 
  2308  0001                     	;# 
  2309  0002                     	;# 
  2310  0003                     	;# 
  2311  0004                     	;# 
  2312  0005                     	;# 
  2313  0006                     	;# 
  2314  0007                     	;# 
  2315  0008                     	;# 
  2316  0009                     	;# 
  2317  000A                     	;# 
  2318  000B                     	;# 
  2319  000C                     	;# 
  2320  000D                     	;# 
  2321  000E                     	;# 
  2322  0010                     	;# 
  2323  0011                     	;# 
  2324  0012                     	;# 
  2325  0013                     	;# 
  2326  0014                     	;# 
  2327  0015                     	;# 
  2328  0016                     	;# 
  2329  0016                     	;# 
  2330  0017                     	;# 
  2331  0018                     	;# 
  2332  0019                     	;# 
  2333  001A                     	;# 
  2334  001B                     	;# 
  2335  001C                     	;# 
  2336  008C                     	;# 
  2337  008D                     	;# 
  2338  008E                     	;# 
  2339  0090                     	;# 
  2340  0091                     	;# 
  2341  0092                     	;# 
  2342  0093                     	;# 
  2343  0094                     	;# 
  2344  0095                     	;# 
  2345  0096                     	;# 
  2346  0097                     	;# 
  2347  0098                     	;# 
  2348  0099                     	;# 
  2349  009A                     	;# 
  2350  009B                     	;# 
  2351  009B                     	;# 
  2352  009C                     	;# 
  2353  009D                     	;# 
  2354  009E                     	;# 
  2355  009F                     	;# 
  2356  010C                     	;# 
  2357  010D                     	;# 
  2358  010E                     	;# 
  2359  0111                     	;# 
  2360  0112                     	;# 
  2361  0113                     	;# 
  2362  0114                     	;# 
  2363  0115                     	;# 
  2364  0116                     	;# 
  2365  0117                     	;# 
  2366  0118                     	;# 
  2367  0119                     	;# 
  2368  011A                     	;# 
  2369  011B                     	;# 
  2370  011C                     	;# 
  2371  011D                     	;# 
  2372  011D                     	;# 
  2373  011D                     	;# 
  2374  011E                     	;# 
  2375  011F                     	;# 
  2376  018C                     	;# 
  2377  018D                     	;# 
  2378  0191                     	;# 
  2379  0191                     	;# 
  2380  0192                     	;# 
  2381  0193                     	;# 
  2382  0193                     	;# 
  2383  0193                     	;# 
  2384  0194                     	;# 
  2385  0195                     	;# 
  2386  0196                     	;# 
  2387  0197                     	;# 
  2388  0199                     	;# 
  2389  0199                     	;# 
  2390  0199                     	;# 
  2391  019A                     	;# 
  2392  019A                     	;# 
  2393  019A                     	;# 
  2394  019B                     	;# 
  2395  019B                     	;# 
  2396  019B                     	;# 
  2397  019B                     	;# 
  2398  019B                     	;# 
  2399  019C                     	;# 
  2400  019C                     	;# 
  2401  019C                     	;# 
  2402  019D                     	;# 
  2403  019D                     	;# 
  2404  019D                     	;# 
  2405  019E                     	;# 
  2406  019E                     	;# 
  2407  019E                     	;# 
  2408  019F                     	;# 
  2409  019F                     	;# 
  2410  019F                     	;# 
  2411  019F                     	;# 
  2412  019F                     	;# 
  2413  020C                     	;# 
  2414  020D                     	;# 
  2415  020E                     	;# 
  2416  0210                     	;# 
  2417  0211                     	;# 
  2418  0211                     	;# 
  2419  0212                     	;# 
  2420  0212                     	;# 
  2421  0213                     	;# 
  2422  0213                     	;# 
  2423  0214                     	;# 
  2424  0214                     	;# 
  2425  0215                     	;# 
  2426  0215                     	;# 
  2427  0215                     	;# 
  2428  0215                     	;# 
  2429  0216                     	;# 
  2430  0216                     	;# 
  2431  0217                     	;# 
  2432  0217                     	;# 
  2433  028C                     	;# 
  2434  028D                     	;# 
  2435  028E                     	;# 
  2436  0291                     	;# 
  2437  0291                     	;# 
  2438  0292                     	;# 
  2439  0293                     	;# 
  2440  0298                     	;# 
  2441  0298                     	;# 
  2442  0299                     	;# 
  2443  029A                     	;# 
  2444  030C                     	;# 
  2445  030D                     	;# 
  2446  030E                     	;# 
  2447  0311                     	;# 
  2448  0311                     	;# 
  2449  0312                     	;# 
  2450  0313                     	;# 
  2451  038C                     	;# 
  2452  038D                     	;# 
  2453  038E                     	;# 
  2454  0390                     	;# 
  2455  0391                     	;# 
  2456  0392                     	;# 
  2457  0393                     	;# 
  2458  0394                     	;# 
  2459  0395                     	;# 
  2460  0396                     	;# 
  2461  0397                     	;# 
  2462  0398                     	;# 
  2463  0399                     	;# 
  2464  039D                     	;# 
  2465  039E                     	;# 
  2466  039F                     	;# 
  2467  0511                     	;# 
  2468  0513                     	;# 
  2469  051A                     	;# 
  2470  0811                     	;# 
  2471  0812                     	;# 
  2472  0813                     	;# 
  2473  0814                     	;# 
  2474  0815                     	;# 
  2475  0816                     	;# 
  2476  0817                     	;# 
  2477  0818                     	;# 
  2478  0819                     	;# 
  2479  081A                     	;# 
  2480  081B                     	;# 
  2481  081C                     	;# 
  2482  081D                     	;# 
  2483  081E                     	;# 
  2484  081F                     	;# 
  2485  0820                     	;# 
  2486  0821                     	;# 
  2487  0821                     	;# 
  2488  0822                     	;# 
  2489  0823                     	;# 
  2490  0823                     	;# 
  2491  0824                     	;# 
  2492  0825                     	;# 
  2493  0825                     	;# 
  2494  0826                     	;# 
  2495  0827                     	;# 
  2496  0827                     	;# 
  2497  0828                     	;# 
  2498  0829                     	;# 
  2499  082A                     	;# 
  2500  082B                     	;# 
  2501  082C                     	;# 
  2502  082D                     	;# 
  2503  082E                     	;# 
  2504  082F                     	;# 
  2505  0831                     	;# 
  2506  0832                     	;# 
  2507  0833                     	;# 
  2508  0834                     	;# 
  2509  0835                     	;# 
  2510  0836                     	;# 
  2511  0837                     	;# 
  2512  0838                     	;# 
  2513  0839                     	;# 
  2514  083A                     	;# 
  2515  083B                     	;# 
  2516  083C                     	;# 
  2517  083D                     	;# 
  2518  083E                     	;# 
  2519  083F                     	;# 
  2520  0840                     	;# 
  2521  0841                     	;# 
  2522  0841                     	;# 
  2523  0842                     	;# 
  2524  0843                     	;# 
  2525  0843                     	;# 
  2526  0844                     	;# 
  2527  0845                     	;# 
  2528  0845                     	;# 
  2529  0846                     	;# 
  2530  0847                     	;# 
  2531  0847                     	;# 
  2532  0848                     	;# 
  2533  0849                     	;# 
  2534  084A                     	;# 
  2535  084B                     	;# 
  2536  084C                     	;# 
  2537  084D                     	;# 
  2538  084E                     	;# 
  2539  084F                     	;# 
  2540  0851                     	;# 
  2541  0852                     	;# 
  2542  0853                     	;# 
  2543  0854                     	;# 
  2544  0855                     	;# 
  2545  0856                     	;# 
  2546  0857                     	;# 
  2547  0858                     	;# 
  2548  0859                     	;# 
  2549  085A                     	;# 
  2550  085B                     	;# 
  2551  085C                     	;# 
  2552  085D                     	;# 
  2553  085E                     	;# 
  2554  085F                     	;# 
  2555  0860                     	;# 
  2556  0861                     	;# 
  2557  0861                     	;# 
  2558  0862                     	;# 
  2559  0863                     	;# 
  2560  0863                     	;# 
  2561  0864                     	;# 
  2562  0865                     	;# 
  2563  0865                     	;# 
  2564  0866                     	;# 
  2565  0867                     	;# 
  2566  0867                     	;# 
  2567  0868                     	;# 
  2568  0869                     	;# 
  2569  086A                     	;# 
  2570  086B                     	;# 
  2571  086C                     	;# 
  2572  086D                     	;# 
  2573  086E                     	;# 
  2574  086F                     	;# 
  2575  0FE4                     	;# 
  2576  0FE5                     	;# 
  2577  0FE6                     	;# 
  2578  0FE7                     	;# 
  2579  0FE8                     	;# 
  2580  0FE9                     	;# 
  2581  0FEA                     	;# 
  2582  0FEB                     	;# 
  2583  0FED                     	;# 
  2584  0FEE                     	;# 
  2585  0FEF                     	;# 
  2586  0000                     	;# 
  2587  0001                     	;# 
  2588  0002                     	;# 
  2589  0003                     	;# 
  2590  0004                     	;# 
  2591  0005                     	;# 
  2592  0006                     	;# 
  2593  0007                     	;# 
  2594  0008                     	;# 
  2595  0009                     	;# 
  2596  000A                     	;# 
  2597  000B                     	;# 
  2598  000C                     	;# 
  2599  000D                     	;# 
  2600  000E                     	;# 
  2601  0010                     	;# 
  2602  0011                     	;# 
  2603  0012                     	;# 
  2604  0013                     	;# 
  2605  0014                     	;# 
  2606  0015                     	;# 
  2607  0016                     	;# 
  2608  0016                     	;# 
  2609  0017                     	;# 
  2610  0018                     	;# 
  2611  0019                     	;# 
  2612  001A                     	;# 
  2613  001B                     	;# 
  2614  001C                     	;# 
  2615  008C                     	;# 
  2616  008D                     	;# 
  2617  008E                     	;# 
  2618  0090                     	;# 
  2619  0091                     	;# 
  2620  0092                     	;# 
  2621  0093                     	;# 
  2622  0094                     	;# 
  2623  0095                     	;# 
  2624  0096                     	;# 
  2625  0097                     	;# 
  2626  0098                     	;# 
  2627  0099                     	;# 
  2628  009A                     	;# 
  2629  009B                     	;# 
  2630  009B                     	;# 
  2631  009C                     	;# 
  2632  009D                     	;# 
  2633  009E                     	;# 
  2634  009F                     	;# 
  2635  010C                     	;# 
  2636  010D                     	;# 
  2637  010E                     	;# 
  2638  0111                     	;# 
  2639  0112                     	;# 
  2640  0113                     	;# 
  2641  0114                     	;# 
  2642  0115                     	;# 
  2643  0116                     	;# 
  2644  0117                     	;# 
  2645  0118                     	;# 
  2646  0119                     	;# 
  2647  011A                     	;# 
  2648  011B                     	;# 
  2649  011C                     	;# 
  2650  011D                     	;# 
  2651  011D                     	;# 
  2652  011D                     	;# 
  2653  011E                     	;# 
  2654  011F                     	;# 
  2655  018C                     	;# 
  2656  018D                     	;# 
  2657  0191                     	;# 
  2658  0191                     	;# 
  2659  0192                     	;# 
  2660  0193                     	;# 
  2661  0193                     	;# 
  2662  0193                     	;# 
  2663  0194                     	;# 
  2664  0195                     	;# 
  2665  0196                     	;# 
  2666  0197                     	;# 
  2667  0199                     	;# 
  2668  0199                     	;# 
  2669  0199                     	;# 
  2670  019A                     	;# 
  2671  019A                     	;# 
  2672  019A                     	;# 
  2673  019B                     	;# 
  2674  019B                     	;# 
  2675  019B                     	;# 
  2676  019B                     	;# 
  2677  019B                     	;# 
  2678  019C                     	;# 
  2679  019C                     	;# 
  2680  019C                     	;# 
  2681  019D                     	;# 
  2682  019D                     	;# 
  2683  019D                     	;# 
  2684  019E                     	;# 
  2685  019E                     	;# 
  2686  019E                     	;# 
  2687  019F                     	;# 
  2688  019F                     	;# 
  2689  019F                     	;# 
  2690  019F                     	;# 
  2691  019F                     	;# 
  2692  020C                     	;# 
  2693  020D                     	;# 
  2694  020E                     	;# 
  2695  0210                     	;# 
  2696  0211                     	;# 
  2697  0211                     	;# 
  2698  0212                     	;# 
  2699  0212                     	;# 
  2700  0213                     	;# 
  2701  0213                     	;# 
  2702  0214                     	;# 
  2703  0214                     	;# 
  2704  0215                     	;# 
  2705  0215                     	;# 
  2706  0215                     	;# 
  2707  0215                     	;# 
  2708  0216                     	;# 
  2709  0216                     	;# 
  2710  0217                     	;# 
  2711  0217                     	;# 
  2712  028C                     	;# 
  2713  028D                     	;# 
  2714  028E                     	;# 
  2715  0291                     	;# 
  2716  0291                     	;# 
  2717  0292                     	;# 
  2718  0293                     	;# 
  2719  0298                     	;# 
  2720  0298                     	;# 
  2721  0299                     	;# 
  2722  029A                     	;# 
  2723  030C                     	;# 
  2724  030D                     	;# 
  2725  030E                     	;# 
  2726  0311                     	;# 
  2727  0311                     	;# 
  2728  0312                     	;# 
  2729  0313                     	;# 
  2730  038C                     	;# 
  2731  038D                     	;# 
  2732  038E                     	;# 
  2733  0390                     	;# 
  2734  0391                     	;# 
  2735  0392                     	;# 
  2736  0393                     	;# 
  2737  0394                     	;# 
  2738  0395                     	;# 
  2739  0396                     	;# 
  2740  0397                     	;# 
  2741  0398                     	;# 
  2742  0399                     	;# 
  2743  039D                     	;# 
  2744  039E                     	;# 
  2745  039F                     	;# 
  2746  0511                     	;# 
  2747  0513                     	;# 
  2748  051A                     	;# 
  2749  0811                     	;# 
  2750  0812                     	;# 
  2751  0813                     	;# 
  2752  0814                     	;# 
  2753  0815                     	;# 
  2754  0816                     	;# 
  2755  0817                     	;# 
  2756  0818                     	;# 
  2757  0819                     	;# 
  2758  081A                     	;# 
  2759  081B                     	;# 
  2760  081C                     	;# 
  2761  081D                     	;# 
  2762  081E                     	;# 
  2763  081F                     	;# 
  2764  0820                     	;# 
  2765  0821                     	;# 
  2766  0821                     	;# 
  2767  0822                     	;# 
  2768  0823                     	;# 
  2769  0823                     	;# 
  2770  0824                     	;# 
  2771  0825                     	;# 
  2772  0825                     	;# 
  2773  0826                     	;# 
  2774  0827                     	;# 
  2775  0827                     	;# 
  2776  0828                     	;# 
  2777  0829                     	;# 
  2778  082A                     	;# 
  2779  082B                     	;# 
  2780  082C                     	;# 
  2781  082D                     	;# 
  2782  082E                     	;# 
  2783  082F                     	;# 
  2784  0831                     	;# 
  2785  0832                     	;# 
  2786  0833                     	;# 
  2787  0834                     	;# 
  2788  0835                     	;# 
  2789  0836                     	;# 
  2790  0837                     	;# 
  2791  0838                     	;# 
  2792  0839                     	;# 
  2793  083A                     	;# 
  2794  083B                     	;# 
  2795  083C                     	;# 
  2796  083D                     	;# 
  2797  083E                     	;# 
  2798  083F                     	;# 
  2799  0840                     	;# 
  2800  0841                     	;# 
  2801  0841                     	;# 
  2802  0842                     	;# 
  2803  0843                     	;# 
  2804  0843                     	;# 
  2805  0844                     	;# 
  2806  0845                     	;# 
  2807  0845                     	;# 
  2808  0846                     	;# 
  2809  0847                     	;# 
  2810  0847                     	;# 
  2811  0848                     	;# 
  2812  0849                     	;# 
  2813  084A                     	;# 
  2814  084B                     	;# 
  2815  084C                     	;# 
  2816  084D                     	;# 
  2817  084E                     	;# 
  2818  084F                     	;# 
  2819  0851                     	;# 
  2820  0852                     	;# 
  2821  0853                     	;# 
  2822  0854                     	;# 
  2823  0855                     	;# 
  2824  0856                     	;# 
  2825  0857                     	;# 
  2826  0858                     	;# 
  2827  0859                     	;# 
  2828  085A                     	;# 
  2829  085B                     	;# 
  2830  085C                     	;# 
  2831  085D                     	;# 
  2832  085E                     	;# 
  2833  085F                     	;# 
  2834  0860                     	;# 
  2835  0861                     	;# 
  2836  0861                     	;# 
  2837  0862                     	;# 
  2838  0863                     	;# 
  2839  0863                     	;# 
  2840  0864                     	;# 
  2841  0865                     	;# 
  2842  0865                     	;# 
  2843  0866                     	;# 
  2844  0867                     	;# 
  2845  0867                     	;# 
  2846  0868                     	;# 
  2847  0869                     	;# 
  2848  086A                     	;# 
  2849  086B                     	;# 
  2850  086C                     	;# 
  2851  086D                     	;# 
  2852  086E                     	;# 
  2853  086F                     	;# 
  2854  0FE4                     	;# 
  2855  0FE5                     	;# 
  2856  0FE6                     	;# 
  2857  0FE7                     	;# 
  2858  0FE8                     	;# 
  2859  0FE9                     	;# 
  2860  0FEA                     	;# 
  2861  0FEB                     	;# 
  2862  0FED                     	;# 
  2863  0FEE                     	;# 
  2864  0FEF                     	;# 
  2865  0000                     	;# 
  2866  0001                     	;# 
  2867  0002                     	;# 
  2868  0003                     	;# 
  2869  0004                     	;# 
  2870  0005                     	;# 
  2871  0006                     	;# 
  2872  0007                     	;# 
  2873  0008                     	;# 
  2874  0009                     	;# 
  2875  000A                     	;# 
  2876  000B                     	;# 
  2877  000C                     	;# 
  2878  000D                     	;# 
  2879  000E                     	;# 
  2880  0010                     	;# 
  2881  0011                     	;# 
  2882  0012                     	;# 
  2883  0013                     	;# 
  2884  0014                     	;# 
  2885  0015                     	;# 
  2886  0016                     	;# 
  2887  0016                     	;# 
  2888  0017                     	;# 
  2889  0018                     	;# 
  2890  0019                     	;# 
  2891  001A                     	;# 
  2892  001B                     	;# 
  2893  001C                     	;# 
  2894  008C                     	;# 
  2895  008D                     	;# 
  2896  008E                     	;# 
  2897  0090                     	;# 
  2898  0091                     	;# 
  2899  0092                     	;# 
  2900  0093                     	;# 
  2901  0094                     	;# 
  2902  0095                     	;# 
  2903  0096                     	;# 
  2904  0097                     	;# 
  2905  0098                     	;# 
  2906  0099                     	;# 
  2907  009A                     	;# 
  2908  009B                     	;# 
  2909  009B                     	;# 
  2910  009C                     	;# 
  2911  009D                     	;# 
  2912  009E                     	;# 
  2913  009F                     	;# 
  2914  010C                     	;# 
  2915  010D                     	;# 
  2916  010E                     	;# 
  2917  0111                     	;# 
  2918  0112                     	;# 
  2919  0113                     	;# 
  2920  0114                     	;# 
  2921  0115                     	;# 
  2922  0116                     	;# 
  2923  0117                     	;# 
  2924  0118                     	;# 
  2925  0119                     	;# 
  2926  011A                     	;# 
  2927  011B                     	;# 
  2928  011C                     	;# 
  2929  011D                     	;# 
  2930  011D                     	;# 
  2931  011D                     	;# 
  2932  011E                     	;# 
  2933  011F                     	;# 
  2934  018C                     	;# 
  2935  018D                     	;# 
  2936  0191                     	;# 
  2937  0191                     	;# 
  2938  0192                     	;# 
  2939  0193                     	;# 
  2940  0193                     	;# 
  2941  0193                     	;# 
  2942  0194                     	;# 
  2943  0195                     	;# 
  2944  0196                     	;# 
  2945  0197                     	;# 
  2946  0199                     	;# 
  2947  0199                     	;# 
  2948  0199                     	;# 
  2949  019A                     	;# 
  2950  019A                     	;# 
  2951  019A                     	;# 
  2952  019B                     	;# 
  2953  019B                     	;# 
  2954  019B                     	;# 
  2955  019B                     	;# 
  2956  019B                     	;# 
  2957  019C                     	;# 
  2958  019C                     	;# 
  2959  019C                     	;# 
  2960  019D                     	;# 
  2961  019D                     	;# 
  2962  019D                     	;# 
  2963  019E                     	;# 
  2964  019E                     	;# 
  2965  019E                     	;# 
  2966  019F                     	;# 
  2967  019F                     	;# 
  2968  019F                     	;# 
  2969  019F                     	;# 
  2970  019F                     	;# 
  2971  020C                     	;# 
  2972  020D                     	;# 
  2973  020E                     	;# 
  2974  0210                     	;# 
  2975  0211                     	;# 
  2976  0211                     	;# 
  2977  0212                     	;# 
  2978  0212                     	;# 
  2979  0213                     	;# 
  2980  0213                     	;# 
  2981  0214                     	;# 
  2982  0214                     	;# 
  2983  0215                     	;# 
  2984  0215                     	;# 
  2985  0215                     	;# 
  2986  0215                     	;# 
  2987  0216                     	;# 
  2988  0216                     	;# 
  2989  0217                     	;# 
  2990  0217                     	;# 
  2991  028C                     	;# 
  2992  028D                     	;# 
  2993  028E                     	;# 
  2994  0291                     	;# 
  2995  0291                     	;# 
  2996  0292                     	;# 
  2997  0293                     	;# 
  2998  0298                     	;# 
  2999  0298                     	;# 
  3000  0299                     	;# 
  3001  029A                     	;# 
  3002  030C                     	;# 
  3003  030D                     	;# 
  3004  030E                     	;# 
  3005  0311                     	;# 
  3006  0311                     	;# 
  3007  0312                     	;# 
  3008  0313                     	;# 
  3009  038C                     	;# 
  3010  038D                     	;# 
  3011  038E                     	;# 
  3012  0390                     	;# 
  3013  0391                     	;# 
  3014  0392                     	;# 
  3015  0393                     	;# 
  3016  0394                     	;# 
  3017  0395                     	;# 
  3018  0396                     	;# 
  3019  0397                     	;# 
  3020  0398                     	;# 
  3021  0399                     	;# 
  3022  039D                     	;# 
  3023  039E                     	;# 
  3024  039F                     	;# 
  3025  0511                     	;# 
  3026  0513                     	;# 
  3027  051A                     	;# 
  3028  0811                     	;# 
  3029  0812                     	;# 
  3030  0813                     	;# 
  3031  0814                     	;# 
  3032  0815                     	;# 
  3033  0816                     	;# 
  3034  0817                     	;# 
  3035  0818                     	;# 
  3036  0819                     	;# 
  3037  081A                     	;# 
  3038  081B                     	;# 
  3039  081C                     	;# 
  3040  081D                     	;# 
  3041  081E                     	;# 
  3042  081F                     	;# 
  3043  0820                     	;# 
  3044  0821                     	;# 
  3045  0821                     	;# 
  3046  0822                     	;# 
  3047  0823                     	;# 
  3048  0823                     	;# 
  3049  0824                     	;# 
  3050  0825                     	;# 
  3051  0825                     	;# 
  3052  0826                     	;# 
  3053  0827                     	;# 
  3054  0827                     	;# 
  3055  0828                     	;# 
  3056  0829                     	;# 
  3057  082A                     	;# 
  3058  082B                     	;# 
  3059  082C                     	;# 
  3060  082D                     	;# 
  3061  082E                     	;# 
  3062  082F                     	;# 
  3063  0831                     	;# 
  3064  0832                     	;# 
  3065  0833                     	;# 
  3066  0834                     	;# 
  3067  0835                     	;# 
  3068  0836                     	;# 
  3069  0837                     	;# 
  3070  0838                     	;# 
  3071  0839                     	;# 
  3072  083A                     	;# 
  3073  083B                     	;# 
  3074  083C                     	;# 
  3075  083D                     	;# 
  3076  083E                     	;# 
  3077  083F                     	;# 
  3078  0840                     	;# 
  3079  0841                     	;# 
  3080  0841                     	;# 
  3081  0842                     	;# 
  3082  0843                     	;# 
  3083  0843                     	;# 
  3084  0844                     	;# 
  3085  0845                     	;# 
  3086  0845                     	;# 
  3087  0846                     	;# 
  3088  0847                     	;# 
  3089  0847                     	;# 
  3090  0848                     	;# 
  3091  0849                     	;# 
  3092  084A                     	;# 
  3093  084B                     	;# 
  3094  084C                     	;# 
  3095  084D                     	;# 
  3096  084E                     	;# 
  3097  084F                     	;# 
  3098  0851                     	;# 
  3099  0852                     	;# 
  3100  0853                     	;# 
  3101  0854                     	;# 
  3102  0855                     	;# 
  3103  0856                     	;# 
  3104  0857                     	;# 
  3105  0858                     	;# 
  3106  0859                     	;# 
  3107  085A                     	;# 
  3108  085B                     	;# 
  3109  085C                     	;# 
  3110  085D                     	;# 
  3111  085E                     	;# 
  3112  085F                     	;# 
  3113  0860                     	;# 
  3114  0861                     	;# 
  3115  0861                     	;# 
  3116  0862                     	;# 
  3117  0863                     	;# 
  3118  0863                     	;# 
  3119  0864                     	;# 
  3120  0865                     	;# 
  3121  0865                     	;# 
  3122  0866                     	;# 
  3123  0867                     	;# 
  3124  0867                     	;# 
  3125  0868                     	;# 
  3126  0869                     	;# 
  3127  086A                     	;# 
  3128  086B                     	;# 
  3129  086C                     	;# 
  3130  086D                     	;# 
  3131  086E                     	;# 
  3132  086F                     	;# 
  3133  0FE4                     	;# 
  3134  0FE5                     	;# 
  3135  0FE6                     	;# 
  3136  0FE7                     	;# 
  3137  0FE8                     	;# 
  3138  0FE9                     	;# 
  3139  0FEA                     	;# 
  3140  0FEB                     	;# 
  3141  0FED                     	;# 
  3142  0FEE                     	;# 
  3143  0FEF                     	;# 
  3144                           
  3145                           	psect	stringtext1
  3146  02A7                     __pstringtext1:	
  3147  02A7                     _segmcode:	
  3148  02A7  3408               	retlw	8
  3149  02A8  347C               	retlw	124
  3150  02A9  3411               	retlw	17
  3151  02AA  3430               	retlw	48
  3152  02AB  3464               	retlw	100
  3153  02AC  3422               	retlw	34
  3154  02AD  3402               	retlw	2
  3155  02AE  3478               	retlw	120
  3156  02AF  3400               	retlw	0
  3157  02B0  3420               	retlw	32
  3158  02B1  34FF               	retlw	255
  3159  02B2                     __end_of_segmcode:	
  3160  0012                     _PIR2bits	set	18
  3161  000C                     _PORTAbits	set	12
  3162  0015                     _TMR0	set	21
  3163  0018                     _T1CONbits	set	24
  3164  0016                     _TMR1L	set	22
  3165  0017                     _TMR1H	set	23
  3166  0011                     _PIR1bits	set	17
  3167  000E                     _PORTCbits	set	14
  3168  000B                     _INTCONbits	set	11
  3169  005E                     _PEIE	set	94
  3170  005F                     _GIE	set	95
  3171  0074                     _RC4	set	116
  3172  0091                     _PIE1bits	set	145
  3173  008E                     _TRISCbits	set	142
  3174  008E                     _TRISC	set	142
  3175  008D                     _TRISB	set	141
  3176  008C                     _TRISA	set	140
  3177  0095                     _OPTION_REGbits	set	149
  3178  0099                     _OSCCONbits	set	153
  3179  048D                     _RCIE	set	1165
  3180  048C                     _TXIE	set	1164
  3181  0473                     _TRISC3	set	1139
  3182  0474                     _TRISC4	set	1140
  3183  010C                     _LATAbits	set	268
  3184  010D                     _LATBbits	set	269
  3185  010E                     _LATC	set	270
  3186  010D                     _LATB	set	269
  3187  010C                     _LATA	set	268
  3188  08E9                     _RXSEL	set	2281
  3189  08EA                     _TXSEL	set	2282
  3190  0874                     _LATC4	set	2164
  3191  0873                     _LATC3	set	2163
  3192  0199                     _RCREG	set	409
  3193  019A                     _TXREG	set	410
  3194  019B                     _SPBRGL	set	411
  3195  019C                     _SPBRGH	set	412
  3196  0CEC                     _CREN	set	3308
  3197  0CEF                     _SPEN	set	3311
  3198  0CF5                     _TXEN	set	3317
  3199  0CFB                     _BRG16	set	3323
  3200  0CF2                     _BRGH	set	3314
  3201  0CF4                     _SYNC	set	3316
  3202  020E                     _WPUCbits	set	526
  3203  020E                     _WPUC	set	526
  3204  020D                     _WPUB	set	525
  3205  020C                     _WPUA	set	524
  3206  1073                     _WPUC3	set	4211
  3207  1074                     _WPUC4	set	4212
  3208  029A                     _CCP2CONbits	set	666
  3209  0298                     _CCPR2L	set	664
  3210  0299                     _CCPR2H	set	665
  3211  1474                     _ODCONC4	set	5236
  3212  1473                     _ODCONC3	set	5235
  3213  0399                     _IOCCFbits	set	921
  3214  0397                     _IOCCPbits	set	919
  3215  0398                     _IOCCN	set	920
  3216  0397                     _IOCCP	set	919
  3217  0395                     _IOCBN	set	917
  3218  0394                     _IOCBP	set	916
  3219  0392                     _IOCAN	set	914
  3220  0391                     _IOCAP	set	913
  3221                           
  3222                           ; #config settings
  3223  0000                     
  3224                           	psect	cinit
  3225  0021                     start_initialization:	
  3226  0021                     __initialization:	
  3227                           
  3228                           ; Clear objects allocated to BANK0
  3229  0021  3036               	movlw	low __pbssBANK0
  3230  0022  0084               	movwf	4
  3231  0023  3000               	movlw	high __pbssBANK0
  3232  0024  0085               	movwf	5
  3233  0025  3014               	movlw	20
  3234  0026  3182  22E1  3180   	fcall	clear_ram0
  3235                           
  3236                           ; Clear objects allocated to BANK1
  3237  0029  30A0               	movlw	low __pbssBANK1
  3238  002A  0084               	movwf	4
  3239  002B  3000               	movlw	high __pbssBANK1
  3240  002C  0085               	movwf	5
  3241  002D  3027               	movlw	39
  3242  002E  3182  22E1         	fcall	clear_ram0
  3243  0030                     end_of_initialization:	
  3244                           ;End of C runtime variable initialization code
  3245                           
  3246  0030                     __end_of__initialization:	
  3247  0030  107E               	bcf	int$flags,0	;clear compiler interrupt flag (level 1)
  3248  0031  0020               	movlb	0
  3249  0032  3182  2A2C         	ljmp	_main	;jump to C main() function
  3250                           
  3251                           	psect	bssBANK0
  3252  0036                     __pbssBANK0:	
  3253  0036                     capture_handdle@last_cnt:	
  3254  0036                     	ds	2
  3255  0038                     _Temp:	
  3256  0038                     	ds	2
  3257  003A                     main@i:	
  3258  003A                     	ds	2
  3259  003C                     tmp_change@key_time_cnt:	
  3260  003C                     	ds	2
  3261  003E                     receive_decode@cnt_low:	
  3262  003E                     	ds	1
  3263  003F                     display_update@i:	
  3264  003F                     	ds	1
  3265  0040                     _flg_rc:	
  3266  0040                     	ds	1
  3267  0041                     _TX_en:	
  3268  0041                     	ds	1
  3269  0042                     _RX_data:	
  3270  0042                     	ds	1
  3271  0043                     _TX_data:	
  3272  0043                     	ds	1
  3273  0044                     _temp_l:	
  3274  0044                     	ds	1
  3275  0045                     _temp_h:	
  3276  0045                     	ds	1
  3277  0046                     main@cnt:	
  3278  0046                     	ds	1
  3279  0047                     ISR@cnt:	
  3280  0047                     	ds	1
  3281  0048                     tmp_change@history_key:	
  3282  0048                     	ds	1
  3283  0049                     _ENUM:	
  3284  0049                     	ds	1
  3285                           
  3286                           	psect	bssBANK1
  3287  00A0                     __pbssBANK1:	
  3288  00A0                     _g_data:	
  3289  00A0                     	ds	39
  3290                           
  3291                           	psect	clrtext
  3292  02E1                     clear_ram0:	
  3293                           ;	Called with FSR0 containing the base address, and
  3294                           ;	WREG with the size to clear
  3295                           
  3296  02E1  0064               	clrwdt	;clear the watchdog before getting into this loop
  3297  02E2                     clrloop0:	
  3298  02E2  0180               	clrf	0	;clear RAM location pointed to by FSR
  3299  02E3  3101               	addfsr 0,1
  3300  02E4  0B89               	decfsz	9,f	;Have we reached the end of clearing yet?
  3301  02E5  2AE2               	goto	clrloop0	;have we reached the end yet?
  3302  02E6  3400               	retlw	0	;all done for this memory range, return
  3303                           
  3304                           	psect	cstackCOMMON
  3305  0070                     __pcstackCOMMON:	
  3306  0070                     ?_data_getdata:	
  3307  0070                     ?_timer_init:	
  3308                           ; 1 bytes @ 0x0
  3309                           
  3310  0070                     ?_IIC_Init:	
  3311                           ; 1 bytes @ 0x0
  3312                           
  3313  0070                     ?_display_set:	
  3314                           ; 1 bytes @ 0x0
  3315                           
  3316  0070                     ?_timer_IsTimer1Itrpt:	
  3317                           ; 1 bytes @ 0x0
  3318                           
  3319  0070                     ??_timer_IsTimer1Itrpt:	
  3320                           ; 1 bytes @ 0x0
  3321                           
  3322  0070                     ?_timer_Timer1Reset:	
  3323                           ; 1 bytes @ 0x0
  3324                           
  3325  0070                     ??_timer_Timer1Reset:	
  3326                           ; 1 bytes @ 0x0
  3327                           
  3328  0070                     ?_capture_IsIntrpt:	
  3329                           ; 1 bytes @ 0x0
  3330                           
  3331  0070                     ??_capture_IsIntrpt:	
  3332                           ; 1 bytes @ 0x0
  3333                           
  3334  0070                     ??_bpc_proc:	
  3335                           ; 1 bytes @ 0x0
  3336                           
  3337  0070                     ?_capture_clrIntrpt:	
  3338                           ; 1 bytes @ 0x0
  3339                           
  3340  0070                     ??_capture_clrIntrpt:	
  3341                           ; 1 bytes @ 0x0
  3342                           
  3343  0070                     ?_led_SetState:	
  3344                           ; 1 bytes @ 0x0
  3345                           
  3346  0070                     ?_timer_Timer1Init:	
  3347                           ; 1 bytes @ 0x0
  3348                           
  3349  0070                     ?_timer_Timer1Start:	
  3350                           ; 1 bytes @ 0x0
  3351                           
  3352  0070                     ?_capture_init:	
  3353                           ; 1 bytes @ 0x0
  3354                           
  3355  0070                     ?_display_update:	
  3356                           ; 1 bytes @ 0x0
  3357                           
  3358  0070                     ?_init_env:	
  3359                           ; 1 bytes @ 0x0
  3360                           
  3361  0070                     ?_ISR:	
  3362                           ; 1 bytes @ 0x0
  3363                           
  3364  0070                     ?_main:	
  3365                           ; 1 bytes @ 0x0
  3366                           
  3367  0070                     ?_display_control595_delay:	
  3368                           ; 1 bytes @ 0x0
  3369                           
  3370  0070                     ?_display_write_byte:	
  3371                           ; 1 bytes @ 0x0
  3372                           
  3373  0070                     ?_capture_IsNegEdge:	
  3374                           ; 1 bytes @ 0x0
  3375                           
  3376  0070                     ??_capture_IsNegEdge:	
  3377                           ; 1 bytes @ 0x0
  3378                           
  3379  0070                     ?_bpc_Cnt2Qua:	
  3380                           ; 1 bytes @ 0x0
  3381                           
  3382  0070                     ??_bpc_Cnt2Qua:	
  3383                           ; 1 bytes @ 0x0
  3384                           
  3385  0070                     ?i1_data_getdata:	
  3386                           ; 1 bytes @ 0x0
  3387                           
  3388  0070                     ??i1_data_getdata:	
  3389                           ; 1 bytes @ 0x0
  3390                           
  3391  0070                     ??i1_capture_setEdge:	
  3392                           ; 1 bytes @ 0x0
  3393                           
  3394  0070                     ?i1_led_SetState:	
  3395                           ; 1 bytes @ 0x0
  3396                           
  3397  0070                     ??i1_led_SetState:	
  3398                           ; 1 bytes @ 0x0
  3399                           
  3400  0070                     ?_capture_handdle:	
  3401                           ; 1 bytes @ 0x0
  3402                           
  3403  0070                     ?_bpc_proc:	
  3404                           ; 2 bytes @ 0x0
  3405                           
  3406  0070                     ?_capture_setEdge:	
  3407                           ; 2 bytes @ 0x0
  3408                           
  3409  0070                     ?i1_capture_setEdge:	
  3410                           ; 2 bytes @ 0x0
  3411                           
  3412  0070                     i1capture_setEdge@edge:	
  3413                           ; 2 bytes @ 0x0
  3414                           
  3415  0070                     i1led_SetState@isOn:	
  3416                           ; 1 bytes @ 0x0
  3417                           
  3418                           
  3419                           ; 1 bytes @ 0x0
  3420  0070                     	ds	1
  3421  0071                     ??_capture_handdle:	
  3422                           
  3423                           ; 1 bytes @ 0x1
  3424  0071                     	ds	6
  3425  0077                     _capture_handdle$1239:	
  3426                           
  3427                           ; 2 bytes @ 0x7
  3428  0077                     	ds	2
  3429  0079                     capture_handdle@pdata:	
  3430                           
  3431                           ; 1 bytes @ 0x9
  3432  0079                     	ds	1
  3433  007A                     capture_handdle@cnt_int:	
  3434                           
  3435                           ; 2 bytes @ 0xA
  3436  007A                     	ds	2
  3437  007C                     capture_handdle@cnt_tmp:	
  3438                           
  3439                           ; 2 bytes @ 0xC
  3440  007C                     	ds	2
  3441  007E                     ??_ISR:	
  3442                           
  3443                           	psect	cstackBANK0
  3444  0020                     __pcstackBANK0:	
  3445                           ; 1 bytes @ 0xE
  3446                           
  3447  0020                     ??_data_getdata:	
  3448  0020                     ??_timer_init:	
  3449                           ; 1 bytes @ 0x0
  3450                           
  3451  0020                     ??_IIC_Init:	
  3452                           ; 1 bytes @ 0x0
  3453                           
  3454  0020                     ??_display_set:	
  3455                           ; 1 bytes @ 0x0
  3456                           
  3457  0020                     ??_led_SetState:	
  3458                           ; 1 bytes @ 0x0
  3459                           
  3460  0020                     ??_timer_Timer1Init:	
  3461                           ; 1 bytes @ 0x0
  3462                           
  3463  0020                     ??_timer_Timer1Start:	
  3464                           ; 1 bytes @ 0x0
  3465                           
  3466  0020                     ??_display_control595_delay:	
  3467                           ; 1 bytes @ 0x0
  3468                           
  3469  0020                     ??_capture_setEdge:	
  3470                           ; 1 bytes @ 0x0
  3471                           
  3472  0020                     ?___awmod:	
  3473                           ; 1 bytes @ 0x0
  3474                           
  3475  0020                     display_set@ison:	
  3476                           ; 2 bytes @ 0x0
  3477                           
  3478  0020                     capture_setEdge@edge:	
  3479                           ; 1 bytes @ 0x0
  3480                           
  3481  0020                     led_SetState@isOn:	
  3482                           ; 1 bytes @ 0x0
  3483                           
  3484  0020                     ___awmod@divisor:	
  3485                           ; 1 bytes @ 0x0
  3486                           
  3487                           
  3488                           ; 2 bytes @ 0x0
  3489  0020                     	ds	1
  3490  0021                     ??_capture_init:	
  3491  0021                     ??_init_env:	
  3492                           ; 1 bytes @ 0x1
  3493                           
  3494  0021                     display_control595_delay@times:	
  3495                           ; 1 bytes @ 0x1
  3496                           
  3497                           
  3498                           ; 1 bytes @ 0x1
  3499  0021                     	ds	1
  3500  0022                     ??_display_write_byte:	
  3501  0022                     ___awmod@dividend:	
  3502                           ; 1 bytes @ 0x2
  3503                           
  3504                           
  3505                           ; 2 bytes @ 0x2
  3506  0022                     	ds	1
  3507  0023                     init_env@pdata:	
  3508                           
  3509                           ; 1 bytes @ 0x3
  3510  0023                     	ds	1
  3511  0024                     ??___awmod:	
  3512  0024                     display_write_byte@data:	
  3513                           ; 1 bytes @ 0x4
  3514                           
  3515  0024                     init_env@i:	
  3516                           ; 1 bytes @ 0x4
  3517                           
  3518                           
  3519                           ; 2 bytes @ 0x4
  3520  0024                     	ds	1
  3521  0025                     display_write_byte@i:	
  3522  0025                     ___awmod@counter:	
  3523                           ; 1 bytes @ 0x5
  3524                           
  3525                           
  3526                           ; 1 bytes @ 0x5
  3527  0025                     	ds	1
  3528  0026                     ___awmod@sign:	
  3529                           
  3530                           ; 1 bytes @ 0x6
  3531  0026                     	ds	1
  3532  0027                     ?_display_write_once:	
  3533  0027                     display_write_once@HR:	
  3534                           ; 1 bytes @ 0x7
  3535                           
  3536                           
  3537                           ; 1 bytes @ 0x7
  3538  0027                     	ds	1
  3539  0028                     display_write_once@ML:	
  3540                           
  3541                           ; 1 bytes @ 0x8
  3542  0028                     	ds	1
  3543  0029                     display_write_once@MR:	
  3544                           
  3545                           ; 1 bytes @ 0x9
  3546  0029                     	ds	1
  3547  002A                     ??_display_write_once:	
  3548  002A                     display_write_once@HL:	
  3549                           ; 1 bytes @ 0xA
  3550                           
  3551                           
  3552                           ; 1 bytes @ 0xA
  3553  002A                     	ds	1
  3554  002B                     ??_display_update:	
  3555                           
  3556                           ; 1 bytes @ 0xB
  3557  002B                     	ds	11
  3558  0036                     ??_main:	
  3559                           
  3560                           	psect	maintext
  3561  022C                     __pmaintext:	
  3562                           ; 1 bytes @ 0x16
  3563 ;;
  3564 ;;Main: autosize = 0, tempsize = 0, incstack = 0, save=0
  3565 ;;
  3566 ;; *************** function _main *****************
  3567 ;; Defined at:
  3568 ;;		line 222 in file "main.c"
  3569 ;; Parameters:    Size  Location     Type
  3570 ;;		None
  3571 ;; Auto vars:     Size  Location     Type
  3572 ;;		None
  3573 ;; Return value:  Size  Location     Type
  3574 ;;                  1    wreg      void 
  3575 ;; Registers used:
  3576 ;;		wreg, fsr0l, fsr0h, fsr1l, fsr1h, status,2, status,0, pclath, cstack
  3577 ;; Tracked objects:
  3578 ;;		On entry : B1F/0
  3579 ;;		On exit  : 0/0
  3580 ;;		Unchanged: 0/0
  3581 ;; Data sizes:     COMMON   BANK0   BANK1   BANK2   BANK3   BANK4   BANK5   BANK6   BANK7   BANK8   BANK9  BANK10  BANK1
      +1  BANK12
  3582 ;;      Params:         0       0       0       0       0       0       0       0       0       0       0       0       
      +0       0
  3583 ;;      Locals:         0       0       0       0       0       0       0       0       0       0       0       0       
      +0       0
  3584 ;;      Temps:          0       0       0       0       0       0       0       0       0       0       0       0       
      +0       0
  3585 ;;      Totals:         0       0       0       0       0       0       0       0       0       0       0       0       
      +0       0
  3586 ;;Total ram usage:        0 bytes
  3587 ;; Hardware stack levels required when called:    7
  3588 ;; This function calls:
  3589 ;;		_capture_init
  3590 ;;		_display_set
  3591 ;;		_display_update
  3592 ;;		_init_env
  3593 ;;		_led_SetState
  3594 ;;		_timer_Timer1Init
  3595 ;;		_timer_Timer1Start
  3596 ;; This function is called by:
  3597 ;;		Startup code after reset
  3598 ;; This function uses a non-reentrant model
  3599 ;;
  3600                           
  3601                           
  3602                           ;psect for function _main
  3603  022C                     _main:	
  3604                           
  3605                           ;incstack = 0
  3606                           ; Regs used in _main: [wreg-fsr1h+status,2+status,0+pclath+cstack]
  3607  022C  3180  20AF  3182   	fcall	_init_env
  3608  022F  3000               	movlw	0
  3609  0230  3182  22B2  3182   	fcall	_led_SetState
  3610  0233  3182  2273  3182   	fcall	_timer_Timer1Init
  3611  0236  3182  22EF  3182   	fcall	_timer_Timer1Start
  3612  0239  3182  22D9  3182   	fcall	_capture_init
  3613  023C  3181  2123  3182   	fcall	_display_update
  3614  023F                     l2683:	
  3615  023F  3001               	movlw	1
  3616  0240  0020               	movlb	0	; select bank0
  3617  0241  07BA               	addwf	main@i,f
  3618  0242  3000               	movlw	0
  3619  0243  3DBB               	addwfc	main@i+1,f
  3620  0244  30E9               	movlw	233
  3621  0245  063A               	xorwf	main@i,w
  3622  0246  3003               	movlw	3
  3623  0247  1903               	skipnz
  3624  0248  063B               	xorwf	main@i+1,w
  3625  0249  1D03               	btfss	3,2
  3626  024A  2A3F               	goto	l2683
  3627  024B  3000               	movlw	0
  3628  024C  3182  22D1  3182   	fcall	_display_set
  3629  024F  2A3F               	goto	l2683
  3630  0250                     __end_of_main:	
  3631                           
  3632                           	psect	text1
  3633  02EF                     __ptext1:	
  3634 ;; *************** function _timer_Timer1Start *****************
  3635 ;; Defined at:
  3636 ;;		line 30 in file "timer.c"
  3637 ;; Parameters:    Size  Location     Type
  3638 ;;		None
  3639 ;; Auto vars:     Size  Location     Type
  3640 ;;		None
  3641 ;; Return value:  Size  Location     Type
  3642 ;;                  1    wreg      void 
  3643 ;; Registers used:
  3644 ;;		None
  3645 ;; Tracked objects:
  3646 ;;		On entry : 0/0
  3647 ;;		On exit  : 0/0
  3648 ;;		Unchanged: 0/0
  3649 ;; Data sizes:     COMMON   BANK0   BANK1   BANK2   BANK3   BANK4   BANK5   BANK6   BANK7   BANK8   BANK9  BANK10  BANK1
      +1  BANK12
  3650 ;;      Params:         0       0       0       0       0       0       0       0       0       0       0       0       
      +0       0
  3651 ;;      Locals:         0       0       0       0       0       0       0       0       0       0       0       0       
      +0       0
  3652 ;;      Temps:          0       0       0       0       0       0       0       0       0       0       0       0       
      +0       0
  3653 ;;      Totals:         0       0       0       0       0       0       0       0       0       0       0       0       
      +0       0
  3654 ;;Total ram usage:        0 bytes
  3655 ;; Hardware stack levels used:    1
  3656 ;; Hardware stack levels required when called:    3
  3657 ;; This function calls:
  3658 ;;		Nothing
  3659 ;; This function is called by:
  3660 ;;		_main
  3661 ;; This function uses a non-reentrant model
  3662 ;;
  3663                           
  3664                           
  3665                           ;psect for function _timer_Timer1Start
  3666  02EF                     _timer_Timer1Start:	
  3667                           
  3668                           ;timer.c: 33:     T1CONbits.TMR1ON = 0b1;
  3669                           
  3670                           ;incstack = 0
  3671                           ; Regs used in _timer_Timer1Start: []
  3672  02EF  0020               	movlb	0	; select bank0
  3673  02F0  1418               	bsf	24,0	;volatile
  3674  02F1  0008               	return
  3675  02F2                     __end_of_timer_Timer1Start:	
  3676                           
  3677                           	psect	text2
  3678  0273                     __ptext2:	
  3679 ;; *************** function _timer_Timer1Init *****************
  3680 ;; Defined at:
  3681 ;;		line 8 in file "timer.c"
  3682 ;; Parameters:    Size  Location     Type
  3683 ;;		None
  3684 ;; Auto vars:     Size  Location     Type
  3685 ;;		None
  3686 ;; Return value:  Size  Location     Type
  3687 ;;                  1    wreg      void 
  3688 ;; Registers used:
  3689 ;;		wreg, status,2, status,0
  3690 ;; Tracked objects:
  3691 ;;		On entry : 0/0
  3692 ;;		On exit  : 0/0
  3693 ;;		Unchanged: 0/0
  3694 ;; Data sizes:     COMMON   BANK0   BANK1   BANK2   BANK3   BANK4   BANK5   BANK6   BANK7   BANK8   BANK9  BANK10  BANK1
      +1  BANK12
  3695 ;;      Params:         0       0       0       0       0       0       0       0       0       0       0       0       
      +0       0
  3696 ;;      Locals:         0       0       0       0       0       0       0       0       0       0       0       0       
      +0       0
  3697 ;;      Temps:          0       0       0       0       0       0       0       0       0       0       0       0       
      +0       0
  3698 ;;      Totals:         0       0       0       0       0       0       0       0       0       0       0       0       
      +0       0
  3699 ;;Total ram usage:        0 bytes
  3700 ;; Hardware stack levels used:    1
  3701 ;; Hardware stack levels required when called:    3
  3702 ;; This function calls:
  3703 ;;		Nothing
  3704 ;; This function is called by:
  3705 ;;		_main
  3706 ;; This function uses a non-reentrant model
  3707 ;;
  3708                           
  3709                           
  3710                           ;psect for function _timer_Timer1Init
  3711  0273                     _timer_Timer1Init:	
  3712                           
  3713                           ;timer.c: 11:     INTCONbits.GIE = 0b1;
  3714                           
  3715                           ;incstack = 0
  3716                           ; Regs used in _timer_Timer1Init: [wreg+status,2+status,0]
  3717  0273  178B               	bsf	11,7	;volatile
  3718                           
  3719                           ;timer.c: 13:     INTCONbits.PEIE = 0b1;
  3720  0274  170B               	bsf	11,6	;volatile
  3721                           
  3722                           ;timer.c: 14:     PIE1bits.TMR1IE = 0b1;
  3723  0275  0021               	movlb	1	; select bank1
  3724  0276  1411               	bsf	17,0	;volatile
  3725                           
  3726                           ;timer.c: 16:     PIR1bits.TMR1IF = 0b0;
  3727  0277  0020               	movlb	0	; select bank0
  3728  0278  1011               	bcf	17,0	;volatile
  3729                           
  3730                           ;timer.c: 18:     TMR1H = 0b0;
  3731  0279  0197               	clrf	23	;volatile
  3732                           
  3733                           ;timer.c: 19:     TMR1L = 0b0;
  3734  027A  0196               	clrf	22	;volatile
  3735                           
  3736                           ;timer.c: 22:     T1CONbits.TMR1CS = 0b00;
  3737  027B  303F               	movlw	-193
  3738  027C  0598               	andwf	24,f	;volatile
  3739                           
  3740                           ;timer.c: 25:     T1CONbits.T1CKPS = 0b11;
  3741  027D  3030               	movlw	48
  3742  027E  0498               	iorwf	24,f	;volatile
  3743  027F  0008               	return
  3744  0280                     __end_of_timer_Timer1Init:	
  3745                           
  3746                           	psect	text3
  3747  02B2                     __ptext3:	
  3748 ;; *************** function _led_SetState *****************
  3749 ;; Defined at:
  3750 ;;		line 94 in file "hardware.c"
  3751 ;; Parameters:    Size  Location     Type
  3752 ;;  isOn            1    wreg     unsigned char 
  3753 ;; Auto vars:     Size  Location     Type
  3754 ;;  isOn            1    0[BANK0 ] unsigned char 
  3755 ;; Return value:  Size  Location     Type
  3756 ;;                  1    wreg      unsigned char 
  3757 ;; Registers used:
  3758 ;;		wreg, status,2, status,0
  3759 ;; Tracked objects:
  3760 ;;		On entry : 0/0
  3761 ;;		On exit  : 0/0
  3762 ;;		Unchanged: 0/0
  3763 ;; Data sizes:     COMMON   BANK0   BANK1   BANK2   BANK3   BANK4   BANK5   BANK6   BANK7   BANK8   BANK9  BANK10  BANK1
      +1  BANK12
  3764 ;;      Params:         0       0       0       0       0       0       0       0       0       0       0       0       
      +0       0
  3765 ;;      Locals:         0       1       0       0       0       0       0       0       0       0       0       0       
      +0       0
  3766 ;;      Temps:          0       0       0       0       0       0       0       0       0       0       0       0       
      +0       0
  3767 ;;      Totals:         0       1       0       0       0       0       0       0       0       0       0       0       
      +0       0
  3768 ;;Total ram usage:        1 bytes
  3769 ;; Hardware stack levels used:    1
  3770 ;; Hardware stack levels required when called:    3
  3771 ;; This function calls:
  3772 ;;		Nothing
  3773 ;; This function is called by:
  3774 ;;		_main
  3775 ;; This function uses a non-reentrant model
  3776 ;;
  3777                           
  3778                           
  3779                           ;psect for function _led_SetState
  3780  02B2                     _led_SetState:	
  3781                           
  3782                           ;incstack = 0
  3783                           ; Regs used in _led_SetState: [wreg+status,2+status,0]
  3784                           ;led_SetState@isOn stored from wreg
  3785  02B2  0020               	movlb	0	; select bank0
  3786  02B3  00A0               	movwf	led_SetState@isOn
  3787                           
  3788                           ;hardware.c: 94: u8 led_SetState(u8 isOn);hardware.c: 95: {;hardware.c: 96:     LATBbits
      +                          .LATB3 = (isOn)? LED_STATE_ON : LED_STATE_OFF;
  3789  02B4  0820               	movf	led_SetState@isOn,w
  3790  02B5  1D03               	btfss	3,2
  3791  02B6  2ABA               	goto	u1550
  3792  02B7  0022               	movlb	2	; select bank2
  3793  02B8  158D               	bsf	13,3	;volatile
  3794  02B9  0008               	return
  3795  02BA                     u1550:	
  3796  02BA  0022               	movlb	2	; select bank2
  3797  02BB  118D               	bcf	13,3	;volatile
  3798  02BC  0008               	return
  3799  02BD                     __end_of_led_SetState:	
  3800                           ;hardware.c: 97:     return 0;;	Return value of _led_SetState is never used
  3801                           
  3802                           
  3803                           	psect	text4
  3804  00AF                     __ptext4:	
  3805 ;; *************** function _init_env *****************
  3806 ;; Defined at:
  3807 ;;		line 44 in file "main.c"
  3808 ;; Parameters:    Size  Location     Type
  3809 ;;		None
  3810 ;; Auto vars:     Size  Location     Type
  3811 ;;  i               2    4[BANK0 ] int 
  3812 ;;  pdata           1    3[BANK0 ] PTR volatile struct .
  3813 ;;		 -> g_data(39), 
  3814 ;; Return value:  Size  Location     Type
  3815 ;;                  1    wreg      void 
  3816 ;; Registers used:
  3817 ;;		wreg, fsr1l, fsr1h, status,2, status,0, pclath, cstack
  3818 ;; Tracked objects:
  3819 ;;		On entry : 0/0
  3820 ;;		On exit  : 0/0
  3821 ;;		Unchanged: 0/0
  3822 ;; Data sizes:     COMMON   BANK0   BANK1   BANK2   BANK3   BANK4   BANK5   BANK6   BANK7   BANK8   BANK9  BANK10  BANK1
      +1  BANK12
  3823 ;;      Params:         0       0       0       0       0       0       0       0       0       0       0       0       
      +0       0
  3824 ;;      Locals:         0       3       0       0       0       0       0       0       0       0       0       0       
      +0       0
  3825 ;;      Temps:          0       2       0       0       0       0       0       0       0       0       0       0       
      +0       0
  3826 ;;      Totals:         0       5       0       0       0       0       0       0       0       0       0       0       
      +0       0
  3827 ;;Total ram usage:        5 bytes
  3828 ;; Hardware stack levels used:    1
  3829 ;; Hardware stack levels required when called:    4
  3830 ;; This function calls:
  3831 ;;		_IIC_Init
  3832 ;;		_data_getdata
  3833 ;;		_display_set
  3834 ;;		_timer_init
  3835 ;; This function is called by:
  3836 ;;		_main
  3837 ;; This function uses a non-reentrant model
  3838 ;;
  3839                           
  3840                           
  3841                           ;psect for function _init_env
  3842  00AF                     _init_env:	
  3843                           
  3844                           ;main.c: 45:     WPUC = 1;
  3845                           
  3846                           ;incstack = 0
  3847                           ; Regs used in _init_env: [wreg+fsr1l+fsr1h+status,2+status,0+pclath+cstack]
  3848  00AF  3182  22FB  3180   	fcall	_data_getdata
  3849  00B2  0020               	movlb	0	; select bank0
  3850  00B3  00A1               	movwf	??_init_env
  3851  00B4  0821               	movf	??_init_env,w
  3852  00B5  00A3               	movwf	init_env@pdata
  3853                           
  3854                           ;main.c: 51: 
  3855  00B6  178B               	bsf	11,7	;volatile
  3856                           
  3857                           ;main.c: 53:     WPUCbits.WPUC5 = 1;
  3858  00B7  158B               	bsf	11,3	;volatile
  3859                           
  3860                           ;main.c: 58: 
  3861  00B8  0021               	movlb	1	; select bank1
  3862  00B9  0819               	movf	25,w	;volatile
  3863  00BA  39FC               	andlw	-4
  3864  00BB  3802               	iorlw	2
  3865  00BC  0099               	movwf	25	;volatile
  3866                           
  3867                           ;main.c: 60:     for(int i = 0;i < 20; i++){
  3868  00BD  0819               	movf	25,w	;volatile
  3869  00BE  3987               	andlw	-121
  3870  00BF  3850               	iorlw	80
  3871  00C0  0099               	movwf	25	;volatile
  3872                           
  3873                           ;main.c: 63: 
  3874  00C1  3182  2280  3180   	fcall	_timer_init
  3875                           
  3876                           ;main.c: 71: 
  3877  00C4  0021               	movlb	1	; select bank1
  3878  00C5  1395               	bcf	21,7	;volatile
  3879                           
  3880                           ;main.c: 73:     TRISCbits.TRISC0 = 1;
  3881  00C6  018C               	clrf	12	;volatile
  3882                           
  3883                           ;main.c: 74:     WPUCbits.WPUC0 = 1;
  3884  00C7  0022               	movlb	2	; select bank2
  3885  00C8  018C               	clrf	12	;volatile
  3886                           
  3887                           ;main.c: 75: 
  3888  00C9  0024               	movlb	4	; select bank4
  3889  00CA  018C               	clrf	12	;volatile
  3890                           
  3891                           ;main.c: 76: 
  3892  00CB  0027               	movlb	7	; select bank7
  3893  00CC  0191               	clrf	17	;volatile
  3894                           
  3895                           ;main.c: 77: 
  3896  00CD  0192               	clrf	18	;volatile
  3897                           
  3898                           ;main.c: 79: 
  3899  00CE  0021               	movlb	1	; select bank1
  3900  00CF  018D               	clrf	13	;volatile
  3901                           
  3902                           ;main.c: 80: 
  3903  00D0  0022               	movlb	2	; select bank2
  3904  00D1  018D               	clrf	13	;volatile
  3905                           
  3906                           ;main.c: 81:     display_set(TRUE);
  3907  00D2  0024               	movlb	4	; select bank4
  3908  00D3  018D               	clrf	13	;volatile
  3909                           
  3910                           ;main.c: 82: }
  3911  00D4  0027               	movlb	7	; select bank7
  3912  00D5  0194               	clrf	20	;volatile
  3913                           
  3914                           ;main.c: 83: 
  3915  00D6  0195               	clrf	21	;volatile
  3916                           
  3917                           ;main.c: 85: void tmp_change(void)
  3918  00D7  0021               	movlb	1	; select bank1
  3919  00D8  018E               	clrf	14	;volatile
  3920                           
  3921                           ;main.c: 86: {
  3922  00D9  0022               	movlb	2	; select bank2
  3923  00DA  018E               	clrf	14	;volatile
  3924                           
  3925                           ;main.c: 87:     static u8 history_key = 0;
  3926  00DB  3001               	movlw	1
  3927  00DC  0024               	movlb	4	; select bank4
  3928  00DD  008E               	movwf	14	;volatile
  3929                           
  3930                           ;main.c: 88:     static u16 key_time_cnt = 0;
  3931  00DE  0027               	movlb	7	; select bank7
  3932  00DF  0197               	clrf	23	;volatile
  3933                           
  3934                           ;main.c: 89:     G_DATA *pdata = data_getdata();
  3935  00E0  0198               	clrf	24	;volatile
  3936                           
  3937                           ;main.c: 94:     if( pdata->g_isDecoding == FALSE && ((pdata->g_flg_switch == TRUE)||(pd
      +                          ata->cnt_update >= 30)) )
  3938  00E1  0021               	movlb	1	; select bank1
  3939  00E2  168E               	bsf	14,5	;volatile
  3940                           
  3941                           ;main.c: 95: 
  3942  00E3  0024               	movlb	4	; select bank4
  3943  00E4  168E               	bsf	14,5	;volatile
  3944                           
  3945                           ;main.c: 97: 
  3946  00E5  0021               	movlb	1	; select bank1
  3947  00E6  148E               	bsf	14,1	;volatile
  3948                           
  3949                           ;main.c: 98:         pdata->g_find_recv_start = FALSE;
  3950  00E7  0024               	movlb	4	; select bank4
  3951  00E8  108E               	bcf	14,1	;volatile
  3952                           
  3953                           ;main.c: 99:         pdata->g_isDecoding = TRUE;
  3954  00E9  0027               	movlb	7	; select bank7
  3955  00EA  1497               	bsf	23,1	;volatile
  3956                           
  3957                           ;main.c: 102:         pdata->g_recv_count = CODE_P0;
  3958  00EB  0020               	movlb	0	; select bank0
  3959  00EC  01A4               	clrf	init_env@i
  3960  00ED  01A5               	clrf	init_env@i+1
  3961  00EE  0825               	movf	init_env@i+1,w
  3962  00EF  3A80               	xorlw	128
  3963  00F0  00A1               	movwf	??_init_env
  3964  00F1  3080               	movlw	128
  3965  00F2  0221               	subwf	??_init_env,w
  3966  00F3  1D03               	skipz
  3967  00F4  28F7               	goto	u1505
  3968  00F5  3014               	movlw	20
  3969  00F6  0224               	subwf	init_env@i,w
  3970  00F7                     u1505:	
  3971  00F7  1803               	btfsc	3,0
  3972  00F8  2914               	goto	l92
  3973  00F9                     l2217:	
  3974                           
  3975                           ;main.c: 103:         PORTCbits.RC2 = BPC_PWR_ON;
  3976  00F9  3005               	movlw	5
  3977  00FA  0020               	movlb	0	; select bank0
  3978  00FB  00A1               	movwf	??_init_env
  3979  00FC  0824               	movf	init_env@i,w
  3980  00FD  3E0D               	addlw	13
  3981  00FE  0723               	addwf	init_env@pdata,w
  3982  00FF  00A2               	movwf	??_init_env+1
  3983  0100  0822               	movf	??_init_env+1,w
  3984  0101  0086               	movwf	6
  3985  0102  0187               	clrf	7
  3986  0103  0821               	movf	??_init_env,w
  3987  0104  0081               	movwf	1
  3988                           
  3989                           ;main.c: 104: 
  3990  0105  3001               	movlw	1
  3991  0106  07A4               	addwf	init_env@i,f
  3992  0107  3000               	movlw	0
  3993  0108  3DA5               	addwfc	init_env@i+1,f
  3994  0109  0825               	movf	init_env@i+1,w
  3995  010A  3A80               	xorlw	128
  3996  010B  00A1               	movwf	??_init_env
  3997  010C  3080               	movlw	128
  3998  010D  0221               	subwf	??_init_env,w
  3999  010E  1D03               	skipz
  4000  010F  2912               	goto	u1515
  4001  0110  3014               	movlw	20
  4002  0111  0224               	subwf	init_env@i,w
  4003  0112                     u1515:	
  4004  0112  1C03               	skipc
  4005  0113  28F9               	goto	l2217
  4006  0114                     l92:	
  4007                           
  4008                           ;main.c: 109:     else if(pdata->g_isDecoding == TRUE && IOCCFbits.IOCCF1 == TRUE && TRU
      +                          E == pdata->g_find_recv_start)
  4009  0114  0022               	movlb	2	; select bank2
  4010  0115  110D               	bcf	13,2	;volatile
  4011                           
  4012                           ;main.c: 112:         {
  4013  0116  0020               	movlb	0	; select bank0
  4014  0117  110E               	bcf	14,2	;volatile
  4015                           
  4016                           ;main.c: 115:         timer_start();
  4017  0118  0021               	movlb	1	; select bank1
  4018  0119  140E               	bsf	14,0	;volatile
  4019                           
  4020                           ;main.c: 116:     }
  4021  011A  0024               	movlb	4	; select bank4
  4022  011B  140E               	bsf	14,0	;volatile
  4023                           
  4024                           ;main.c: 120:         IOCCFbits.IOCCF1 = FALSE;
  4025  011C  3182  228D  3180   	fcall	_IIC_Init
  4026                           
  4027                           ;main.c: 123: 
  4028  011F  3001               	movlw	1
  4029  0120  3182  22D1         	fcall	_display_set
  4030  0122  0008               	return
  4031  0123                     __end_of_init_env:	
  4032                           
  4033                           	psect	text5
  4034  0280                     __ptext5:	
  4035 ;; *************** function _timer_init *****************
  4036 ;; Defined at:
  4037 ;;		line 50 in file "timer.c"
  4038 ;; Parameters:    Size  Location     Type
  4039 ;;		None
  4040 ;; Auto vars:     Size  Location     Type
  4041 ;;		None
  4042 ;; Return value:  Size  Location     Type
  4043 ;;                  1    wreg      void 
  4044 ;; Registers used:
  4045 ;;		wreg, status,2, status,0
  4046 ;; Tracked objects:
  4047 ;;		On entry : 0/0
  4048 ;;		On exit  : 0/0
  4049 ;;		Unchanged: 0/0
  4050 ;; Data sizes:     COMMON   BANK0   BANK1   BANK2   BANK3   BANK4   BANK5   BANK6   BANK7   BANK8   BANK9  BANK10  BANK1
      +1  BANK12
  4051 ;;      Params:         0       0       0       0       0       0       0       0       0       0       0       0       
      +0       0
  4052 ;;      Locals:         0       0       0       0       0       0       0       0       0       0       0       0       
      +0       0
  4053 ;;      Temps:          0       0       0       0       0       0       0       0       0       0       0       0       
      +0       0
  4054 ;;      Totals:         0       0       0       0       0       0       0       0       0       0       0       0       
      +0       0
  4055 ;;Total ram usage:        0 bytes
  4056 ;; Hardware stack levels used:    1
  4057 ;; Hardware stack levels required when called:    3
  4058 ;; This function calls:
  4059 ;;		Nothing
  4060 ;; This function is called by:
  4061 ;;		_init_env
  4062 ;; This function uses a non-reentrant model
  4063 ;;
  4064                           
  4065                           
  4066                           ;psect for function _timer_init
  4067  0280                     _timer_init:	
  4068                           
  4069                           ;timer.c: 53:     INTCONbits.GIE = 0b1;
  4070                           
  4071                           ;incstack = 0
  4072                           ; Regs used in _timer_init: [wreg+status,2+status,0]
  4073  0280  178B               	bsf	11,7	;volatile
  4074                           
  4075                           ;timer.c: 56:     INTCONbits.TMR0IE = 0b0;
  4076  0281  128B               	bcf	11,5	;volatile
  4077                           
  4078                           ;timer.c: 61:     OPTION_REGbits.PSA = 0;
  4079  0282  0021               	movlb	1	; select bank1
  4080  0283  1195               	bcf	21,3	;volatile
  4081                           
  4082                           ;timer.c: 62:     OPTION_REGbits.TMR0CS = 0;
  4083  0284  1295               	bcf	21,5	;volatile
  4084                           
  4085                           ;timer.c: 63:     OPTION_REGbits.PS = 4;
  4086  0285  0815               	movf	21,w	;volatile
  4087  0286  39F8               	andlw	-8
  4088  0287  3804               	iorlw	4
  4089  0288  0095               	movwf	21	;volatile
  4090                           
  4091                           ;timer.c: 64:     TMR0 = (217 + 14);
  4092  0289  30E7               	movlw	231
  4093  028A  0020               	movlb	0	; select bank0
  4094  028B  0095               	movwf	21	;volatile
  4095  028C  0008               	return
  4096  028D                     __end_of_timer_init:	
  4097                           
  4098                           	psect	text6
  4099  02D1                     __ptext6:	
  4100 ;; *************** function _display_set *****************
  4101 ;; Defined at:
  4102 ;;		line 14 in file "display.c"
  4103 ;; Parameters:    Size  Location     Type
  4104 ;;  ison            1    wreg     enum E5222
  4105 ;; Auto vars:     Size  Location     Type
  4106 ;;  ison            1    0[BANK0 ] enum E5222
  4107 ;; Return value:  Size  Location     Type
  4108 ;;                  1    wreg      void 
  4109 ;; Registers used:
  4110 ;;		wreg, status,0
  4111 ;; Tracked objects:
  4112 ;;		On entry : 0/0
  4113 ;;		On exit  : 0/0
  4114 ;;		Unchanged: 0/0
  4115 ;; Data sizes:     COMMON   BANK0   BANK1   BANK2   BANK3   BANK4   BANK5   BANK6   BANK7   BANK8   BANK9  BANK10  BANK1
      +1  BANK12
  4116 ;;      Params:         0       0       0       0       0       0       0       0       0       0       0       0       
      +0       0
  4117 ;;      Locals:         0       1       0       0       0       0       0       0       0       0       0       0       
      +0       0
  4118 ;;      Temps:          0       0       0       0       0       0       0       0       0       0       0       0       
      +0       0
  4119 ;;      Totals:         0       1       0       0       0       0       0       0       0       0       0       0       
      +0       0
  4120 ;;Total ram usage:        1 bytes
  4121 ;; Hardware stack levels used:    1
  4122 ;; Hardware stack levels required when called:    3
  4123 ;; This function calls:
  4124 ;;		Nothing
  4125 ;; This function is called by:
  4126 ;;		_init_env
  4127 ;;		_main
  4128 ;; This function uses a non-reentrant model
  4129 ;;
  4130                           
  4131                           
  4132                           ;psect for function _display_set
  4133  02D1                     _display_set:	
  4134                           
  4135                           ;incstack = 0
  4136                           ; Regs used in _display_set: [wreg+status,0]
  4137                           ;display_set@ison stored from wreg
  4138  02D1  0020               	movlb	0	; select bank0
  4139  02D2  00A0               	movwf	display_set@ison
  4140                           
  4141                           ;display.c: 14: void display_set(BOOL ison);display.c: 15: {;display.c: 16:     PORTAbit
      +                          s.RA0 = ison;
  4142  02D3  0C20               	rrf	display_set@ison,w
  4143  02D4  1C03               	skipc
  4144  02D5  100C               	bcf	12,0	;volatile
  4145  02D6  1803               	skipnc
  4146  02D7  140C               	bsf	12,0	;volatile
  4147  02D8  0008               	return
  4148  02D9                     __end_of_display_set:	
  4149                           
  4150                           	psect	text7
  4151  02FB                     __ptext7:	
  4152 ;; *************** function _data_getdata *****************
  4153 ;; Defined at:
  4154 ;;		line 9 in file "data.c"
  4155 ;; Parameters:    Size  Location     Type
  4156 ;;		None
  4157 ;; Auto vars:     Size  Location     Type
  4158 ;;		None
  4159 ;; Return value:  Size  Location     Type
  4160 ;;                  1    wreg      PTR volatile struct .
  4161 ;; Registers used:
  4162 ;;		wreg
  4163 ;; Tracked objects:
  4164 ;;		On entry : 0/0
  4165 ;;		On exit  : 0/0
  4166 ;;		Unchanged: 0/0
  4167 ;; Data sizes:     COMMON   BANK0   BANK1   BANK2   BANK3   BANK4   BANK5   BANK6   BANK7   BANK8   BANK9  BANK10  BANK1
      +1  BANK12
  4168 ;;      Params:         0       0       0       0       0       0       0       0       0       0       0       0       
      +0       0
  4169 ;;      Locals:         0       0       0       0       0       0       0       0       0       0       0       0       
      +0       0
  4170 ;;      Temps:          0       0       0       0       0       0       0       0       0       0       0       0       
      +0       0
  4171 ;;      Totals:         0       0       0       0       0       0       0       0       0       0       0       0       
      +0       0
  4172 ;;Total ram usage:        0 bytes
  4173 ;; Hardware stack levels used:    1
  4174 ;; Hardware stack levels required when called:    3
  4175 ;; This function calls:
  4176 ;;		Nothing
  4177 ;; This function is called by:
  4178 ;;		_init_env
  4179 ;;		_tmp_change
  4180 ;;		_update_time
  4181 ;;		_check_err
  4182 ;;		_receive_decode
  4183 ;; This function uses a non-reentrant model
  4184 ;;
  4185                           
  4186                           
  4187                           ;psect for function _data_getdata
  4188  02FB                     _data_getdata:	
  4189                           
  4190                           ;data.c: 11:     return &g_data;
  4191                           
  4192                           ;incstack = 0
  4193                           ; Regs used in _data_getdata: [wreg]
  4194  02FB  30A0               	movlw	(low (_g_data| 0))& (0+255)
  4195  02FC  0008               	return
  4196  02FD                     __end_of_data_getdata:	
  4197                           
  4198                           	psect	text8
  4199  028D                     __ptext8:	
  4200 ;; *************** function _IIC_Init *****************
  4201 ;; Defined at:
  4202 ;;		line 8 in file "myiic.c"
  4203 ;; Parameters:    Size  Location     Type
  4204 ;;		None
  4205 ;; Auto vars:     Size  Location     Type
  4206 ;;		None
  4207 ;; Return value:  Size  Location     Type
  4208 ;;                  1    wreg      void 
  4209 ;; Registers used:
  4210 ;;		None
  4211 ;; Tracked objects:
  4212 ;;		On entry : 0/0
  4213 ;;		On exit  : 0/0
  4214 ;;		Unchanged: 0/0
  4215 ;; Data sizes:     COMMON   BANK0   BANK1   BANK2   BANK3   BANK4   BANK5   BANK6   BANK7   BANK8   BANK9  BANK10  BANK1
      +1  BANK12
  4216 ;;      Params:         0       0       0       0       0       0       0       0       0       0       0       0       
      +0       0
  4217 ;;      Locals:         0       0       0       0       0       0       0       0       0       0       0       0       
      +0       0
  4218 ;;      Temps:          0       0       0       0       0       0       0       0       0       0       0       0       
      +0       0
  4219 ;;      Totals:         0       0       0       0       0       0       0       0       0       0       0       0       
      +0       0
  4220 ;;Total ram usage:        0 bytes
  4221 ;; Hardware stack levels used:    1
  4222 ;; Hardware stack levels required when called:    3
  4223 ;; This function calls:
  4224 ;;		Nothing
  4225 ;; This function is called by:
  4226 ;;		_init_env
  4227 ;; This function uses a non-reentrant model
  4228 ;;
  4229                           
  4230                           
  4231                           ;psect for function _IIC_Init
  4232  028D                     _IIC_Init:	
  4233                           
  4234                           ;myiic.c: 10:     LATC3=1;
  4235                           
  4236                           ;incstack = 0
  4237                           ; Regs used in _IIC_Init: []
  4238  028D  0022               	movlb	2	; select bank2
  4239  028E  158E               	bsf	14,3	;volatile
  4240                           
  4241                           ;myiic.c: 11:  LATC4=1;
  4242  028F  160E               	bsf	14,4	;volatile
  4243                           
  4244                           ;myiic.c: 13:     ODCONC3 = 1;
  4245  0290  0025               	movlb	5	; select bank5
  4246  0291  158E               	bsf	14,3	;volatile
  4247                           
  4248                           ;myiic.c: 14:     ODCONC4 = 1;
  4249  0292  160E               	bsf	14,4	;volatile
  4250                           
  4251                           ;myiic.c: 16:     TRISC4 = 0;
  4252  0293  0021               	movlb	1	; select bank1
  4253  0294  120E               	bcf	14,4	;volatile
  4254                           
  4255                           ;myiic.c: 17:     TRISC3 = 0;
  4256  0295  118E               	bcf	14,3	;volatile
  4257                           
  4258                           ;myiic.c: 19:  WPUC4 = 1;
  4259  0296  0024               	movlb	4	; select bank4
  4260  0297  160E               	bsf	14,4	;volatile
  4261                           
  4262                           ;myiic.c: 20:     WPUC3 = 1;
  4263  0298  158E               	bsf	14,3	;volatile
  4264  0299  0008               	return
  4265  029A                     __end_of_IIC_Init:	
  4266                           
  4267                           	psect	text9
  4268  0123                     __ptext9:	
  4269 ;; *************** function _display_update *****************
  4270 ;; Defined at:
  4271 ;;		line 72 in file "display.c"
  4272 ;; Parameters:    Size  Location     Type
  4273 ;;		None
  4274 ;; Auto vars:     Size  Location     Type
  4275 ;;		None
  4276 ;; Return value:  Size  Location     Type
  4277 ;;                  1    wreg      void 
  4278 ;; Registers used:
  4279 ;;		wreg, fsr0l, fsr0h, status,2, status,0, pclath, cstack
  4280 ;; Tracked objects:
  4281 ;;		On entry : 0/0
  4282 ;;		On exit  : 0/0
  4283 ;;		Unchanged: 0/0
  4284 ;; Data sizes:     COMMON   BANK0   BANK1   BANK2   BANK3   BANK4   BANK5   BANK6   BANK7   BANK8   BANK9  BANK10  BANK1
      +1  BANK12
  4285 ;;      Params:         0       0       0       0       0       0       0       0       0       0       0       0       
      +0       0
  4286 ;;      Locals:         0       0       0       0       0       0       0       0       0       0       0       0       
      +0       0
  4287 ;;      Temps:          0      11       0       0       0       0       0       0       0       0       0       0       
      +0       0
  4288 ;;      Totals:         0      11       0       0       0       0       0       0       0       0       0       0       
      +0       0
  4289 ;;Total ram usage:       11 bytes
  4290 ;; Hardware stack levels used:    1
  4291 ;; Hardware stack levels required when called:    6
  4292 ;; This function calls:
  4293 ;;		___awmod
  4294 ;;		_display_write_once
  4295 ;; This function is called by:
  4296 ;;		_main
  4297 ;;		_update_time
  4298 ;;		_receive_decode
  4299 ;; This function uses a non-reentrant model
  4300 ;;
  4301                           
  4302                           
  4303                           ;psect for function _display_update
  4304  0123                     _display_update:	
  4305                           
  4306                           ;display.c: 85:     static u8 i=0;;display.c: 89:     display_write_once(segmcode[i%10],
      +                           segmcode[i%10], segmcode[i%10], segmcode[i%10]);
  4307                           
  4308                           ;incstack = 0
  4309                           ; Regs used in _display_update: [wreg-fsr0h+status,2+status,0+pclath+cstack]
  4310  0123  300A               	movlw	10
  4311  0124  0020               	movlb	0	; select bank0
  4312  0125  00A0               	movwf	___awmod@divisor
  4313  0126  3000               	movlw	0
  4314  0127  00A1               	movwf	___awmod@divisor+1
  4315  0128  083F               	movf	display_update@i,w
  4316  0129  00AB               	movwf	??_display_update
  4317  012A  01AC               	clrf	??_display_update+1
  4318  012B  082B               	movf	??_display_update,w
  4319  012C  00A2               	movwf	___awmod@dividend
  4320  012D  082C               	movf	??_display_update+1,w
  4321  012E  00A3               	movwf	___awmod@dividend+1
  4322  012F  3181  2195  3181   	fcall	___awmod
  4323  0132  0020               	movlb	0	; select bank0
  4324  0133  0821               	movf	?___awmod+1,w
  4325  0134  0085               	movwf	5
  4326  0135  0820               	movf	?___awmod,w
  4327  0136  0084               	movwf	4
  4328  0137  30A7               	movlw	low (_segmcode| (0+32768))
  4329  0138  0784               	addwf	4,f
  4330  0139  3082               	movlw	high (_segmcode| (0+32768))
  4331  013A  3D85               	addwfc	5,f
  4332  013B  0800               	movf	0,w	;code access
  4333  013C  00AD               	movwf	??_display_update+2
  4334  013D  082D               	movf	??_display_update+2,w
  4335  013E  00A7               	movwf	display_write_once@HR
  4336  013F  300A               	movlw	10
  4337  0140  00A0               	movwf	___awmod@divisor
  4338  0141  3000               	movlw	0
  4339  0142  00A1               	movwf	___awmod@divisor+1
  4340  0143  083F               	movf	display_update@i,w
  4341  0144  00AE               	movwf	??_display_update+3
  4342  0145  01AF               	clrf	??_display_update+4
  4343  0146  082E               	movf	??_display_update+3,w
  4344  0147  00A2               	movwf	___awmod@dividend
  4345  0148  082F               	movf	??_display_update+4,w
  4346  0149  00A3               	movwf	___awmod@dividend+1
  4347  014A  3181  2195  3181   	fcall	___awmod
  4348  014D  0020               	movlb	0	; select bank0
  4349  014E  0821               	movf	?___awmod+1,w
  4350  014F  0085               	movwf	5
  4351  0150  0820               	movf	?___awmod,w
  4352  0151  0084               	movwf	4
  4353  0152  30A7               	movlw	low (_segmcode| (0+32768))
  4354  0153  0784               	addwf	4,f
  4355  0154  3082               	movlw	high (_segmcode| (0+32768))
  4356  0155  3D85               	addwfc	5,f
  4357  0156  0800               	movf	0,w	;code access
  4358  0157  00B0               	movwf	??_display_update+5
  4359  0158  0830               	movf	??_display_update+5,w
  4360  0159  00A8               	movwf	display_write_once@ML
  4361  015A  300A               	movlw	10
  4362  015B  00A0               	movwf	___awmod@divisor
  4363  015C  3000               	movlw	0
  4364  015D  00A1               	movwf	___awmod@divisor+1
  4365  015E  083F               	movf	display_update@i,w
  4366  015F  00B1               	movwf	??_display_update+6
  4367  0160  01B2               	clrf	??_display_update+7
  4368  0161  0831               	movf	??_display_update+6,w
  4369  0162  00A2               	movwf	___awmod@dividend
  4370  0163  0832               	movf	??_display_update+7,w
  4371  0164  00A3               	movwf	___awmod@dividend+1
  4372  0165  3181  2195  3181   	fcall	___awmod
  4373  0168  0020               	movlb	0	; select bank0
  4374  0169  0821               	movf	?___awmod+1,w
  4375  016A  0085               	movwf	5
  4376  016B  0820               	movf	?___awmod,w
  4377  016C  0084               	movwf	4
  4378  016D  30A7               	movlw	low (_segmcode| (0+32768))
  4379  016E  0784               	addwf	4,f
  4380  016F  3082               	movlw	high (_segmcode| (0+32768))
  4381  0170  3D85               	addwfc	5,f
  4382  0171  0800               	movf	0,w	;code access
  4383  0172  00B3               	movwf	??_display_update+8
  4384  0173  0833               	movf	??_display_update+8,w
  4385  0174  00A9               	movwf	display_write_once@MR
  4386  0175  300A               	movlw	10
  4387  0176  00A0               	movwf	___awmod@divisor
  4388  0177  3000               	movlw	0
  4389  0178  00A1               	movwf	___awmod@divisor+1
  4390  0179  083F               	movf	display_update@i,w
  4391  017A  00B4               	movwf	??_display_update+9
  4392  017B  01B5               	clrf	??_display_update+10
  4393  017C  0834               	movf	??_display_update+9,w
  4394  017D  00A2               	movwf	___awmod@dividend
  4395  017E  0835               	movf	??_display_update+10,w
  4396  017F  00A3               	movwf	___awmod@dividend+1
  4397  0180  3181  2195  3181   	fcall	___awmod
  4398  0183  0020               	movlb	0	; select bank0
  4399  0184  0821               	movf	?___awmod+1,w
  4400  0185  0085               	movwf	5
  4401  0186  0820               	movf	?___awmod,w
  4402  0187  0084               	movwf	4
  4403  0188  30A7               	movlw	low (_segmcode| (0+32768))
  4404  0189  0784               	addwf	4,f
  4405  018A  3082               	movlw	high (_segmcode| (0+32768))
  4406  018B  3D85               	addwfc	5,f
  4407  018C  0800               	movf	0,w	;code access
  4408  018D  3182  2206         	fcall	_display_write_once
  4409                           
  4410                           ;display.c: 91:     i++;
  4411  018F  3001               	movlw	1
  4412  0190  0020               	movlb	0	; select bank0
  4413  0191  00AB               	movwf	??_display_update
  4414  0192  082B               	movf	??_display_update,w
  4415  0193  07BF               	addwf	display_update@i,f
  4416  0194  0008               	return
  4417  0195                     __end_of_display_update:	
  4418                           ;display.c: 92:     return;
  4419                           
  4420                           
  4421                           	psect	text10
  4422  0206                     __ptext10:	
  4423 ;; *************** function _display_write_once *****************
  4424 ;; Defined at:
  4425 ;;		line 54 in file "display.c"
  4426 ;; Parameters:    Size  Location     Type
  4427 ;;  HL              1    wreg     unsigned char 
  4428 ;;  HR              1    7[BANK0 ] unsigned char 
  4429 ;;  ML              1    8[BANK0 ] unsigned char 
  4430 ;;  MR              1    9[BANK0 ] unsigned char 
  4431 ;; Auto vars:     Size  Location     Type
  4432 ;;  HL              1   10[BANK0 ] unsigned char 
  4433 ;; Return value:  Size  Location     Type
  4434 ;;                  1    wreg      void 
  4435 ;; Registers used:
  4436 ;;		wreg, status,2, status,0, pclath, cstack
  4437 ;; Tracked objects:
  4438 ;;		On entry : 0/0
  4439 ;;		On exit  : 0/0
  4440 ;;		Unchanged: 0/0
  4441 ;; Data sizes:     COMMON   BANK0   BANK1   BANK2   BANK3   BANK4   BANK5   BANK6   BANK7   BANK8   BANK9  BANK10  BANK1
      +1  BANK12
  4442 ;;      Params:         0       3       0       0       0       0       0       0       0       0       0       0       
      +0       0
  4443 ;;      Locals:         0       1       0       0       0       0       0       0       0       0       0       0       
      +0       0
  4444 ;;      Temps:          0       0       0       0       0       0       0       0       0       0       0       0       
      +0       0
  4445 ;;      Totals:         0       4       0       0       0       0       0       0       0       0       0       0       
      +0       0
  4446 ;;Total ram usage:        4 bytes
  4447 ;; Hardware stack levels used:    1
  4448 ;; Hardware stack levels required when called:    5
  4449 ;; This function calls:
  4450 ;;		_display_control595_delay
  4451 ;;		_display_write_byte
  4452 ;; This function is called by:
  4453 ;;		_display_update
  4454 ;; This function uses a non-reentrant model
  4455 ;;
  4456                           
  4457                           
  4458                           ;psect for function _display_write_once
  4459  0206                     _display_write_once:	
  4460                           
  4461                           ;incstack = 0
  4462                           ; Regs used in _display_write_once: [wreg+status,2+status,0+pclath+cstack]
  4463                           ;display_write_once@HL stored from wreg
  4464  0206  0020               	movlb	0	; select bank0
  4465  0207  00AA               	movwf	display_write_once@HL
  4466                           
  4467                           ;display.c: 56:     display_write_byte(HL);
  4468  0208  082A               	movf	display_write_once@HL,w
  4469  0209  3181  21DB  3182   	fcall	_display_write_byte
  4470                           
  4471                           ;display.c: 57:     display_write_byte(HR);
  4472  020C  0020               	movlb	0	; select bank0
  4473  020D  0827               	movf	display_write_once@HR,w
  4474  020E  3181  21DB  3182   	fcall	_display_write_byte
  4475                           
  4476                           ;display.c: 58:     display_write_byte(ML);
  4477  0211  0020               	movlb	0	; select bank0
  4478  0212  0828               	movf	display_write_once@ML,w
  4479  0213  3181  21DB  3182   	fcall	_display_write_byte
  4480                           
  4481                           ;display.c: 59:     display_write_byte(MR);
  4482  0216  0020               	movlb	0	; select bank0
  4483  0217  0829               	movf	display_write_once@MR,w
  4484  0218  3181  21DB  3182   	fcall	_display_write_byte
  4485                           
  4486                           ;display.c: 62:     LATBbits.LATB0 = PIN_LOW;
  4487  021B  0022               	movlb	2	; select bank2
  4488  021C  100D               	bcf	13,0	;volatile
  4489                           
  4490                           ;display.c: 63:     display_control595_delay();
  4491  021D  3182  229A  3182   	fcall	_display_control595_delay
  4492                           
  4493                           ;display.c: 64:     LATBbits.LATB0 = PIN_HIGH;
  4494  0220  0022               	movlb	2	; select bank2
  4495  0221  140D               	bsf	13,0	;volatile
  4496                           
  4497                           ;display.c: 65:     display_control595_delay();
  4498  0222  3182  229A  3182   	fcall	_display_control595_delay
  4499                           
  4500                           ;display.c: 67:     LATBbits.LATB1 = PIN_HIGH;
  4501  0225  0022               	movlb	2	; select bank2
  4502  0226  148D               	bsf	13,1	;volatile
  4503                           
  4504                           ;display.c: 68:  display_control595_delay();
  4505  0227  3182  229A         	fcall	_display_control595_delay
  4506                           
  4507                           ;display.c: 69:     LATBbits.LATB1 = PIN_LOW;
  4508  0229  0022               	movlb	2	; select bank2
  4509  022A  108D               	bcf	13,1	;volatile
  4510  022B  0008               	return
  4511  022C                     __end_of_display_write_once:	
  4512                           
  4513                           	psect	text11
  4514  01DB                     __ptext11:	
  4515 ;; *************** function _display_write_byte *****************
  4516 ;; Defined at:
  4517 ;;		line 42 in file "display.c"
  4518 ;; Parameters:    Size  Location     Type
  4519 ;;  data            1    wreg     unsigned char 
  4520 ;; Auto vars:     Size  Location     Type
  4521 ;;  data            1    4[BANK0 ] unsigned char 
  4522 ;;  i               1    5[BANK0 ] unsigned char 
  4523 ;; Return value:  Size  Location     Type
  4524 ;;                  1    wreg      void 
  4525 ;; Registers used:
  4526 ;;		wreg, status,2, status,0, pclath, cstack
  4527 ;; Tracked objects:
  4528 ;;		On entry : 0/0
  4529 ;;		On exit  : 0/0
  4530 ;;		Unchanged: 0/0
  4531 ;; Data sizes:     COMMON   BANK0   BANK1   BANK2   BANK3   BANK4   BANK5   BANK6   BANK7   BANK8   BANK9  BANK10  BANK1
      +1  BANK12
  4532 ;;      Params:         0       0       0       0       0       0       0       0       0       0       0       0       
      +0       0
  4533 ;;      Locals:         0       2       0       0       0       0       0       0       0       0       0       0       
      +0       0
  4534 ;;      Temps:          0       2       0       0       0       0       0       0       0       0       0       0       
      +0       0
  4535 ;;      Totals:         0       4       0       0       0       0       0       0       0       0       0       0       
      +0       0
  4536 ;;Total ram usage:        4 bytes
  4537 ;; Hardware stack levels used:    1
  4538 ;; Hardware stack levels required when called:    4
  4539 ;; This function calls:
  4540 ;;		_display_control595_delay
  4541 ;; This function is called by:
  4542 ;;		_display_write_once
  4543 ;; This function uses a non-reentrant model
  4544 ;;
  4545                           
  4546                           
  4547                           ;psect for function _display_write_byte
  4548  01DB                     _display_write_byte:	
  4549                           
  4550                           ;incstack = 0
  4551                           ; Regs used in _display_write_byte: [wreg+status,2+status,0+pclath+cstack]
  4552                           ;display_write_byte@data stored from wreg
  4553  01DB  0020               	movlb	0	; select bank0
  4554  01DC  00A4               	movwf	display_write_byte@data
  4555                           
  4556                           ;display.c: 43:     u8 i;;display.c: 44:     for(i = 0; i < 8; i++){
  4557  01DD  01A5               	clrf	display_write_byte@i
  4558  01DE                     L1:	
  4559  01DE  3008               	movlw	8
  4560  01DF  0225               	subwf	display_write_byte@i,w
  4561  01E0  1803               	btfsc	3,0
  4562  01E1  0008               	return
  4563                           
  4564                           ;display.c: 45:   LATBbits.LATB5 = (data & 0x80) >> 7;
  4565  01E2  0824               	movf	display_write_byte@data,w
  4566  01E3  00A2               	movwf	??_display_write_byte
  4567  01E4  3007               	movlw	7
  4568  01E5                     u1205:	
  4569  01E5  36A2               	lsrf	??_display_write_byte,f
  4570  01E6  0B89               	decfsz	9,f
  4571  01E7  29E5               	goto	u1205
  4572  01E8  0822               	movf	??_display_write_byte,w
  4573  01E9  3901               	andlw	1
  4574  01EA  00A3               	movwf	??_display_write_byte+1
  4575  01EB  0EA3               	swapf	??_display_write_byte+1,f
  4576  01EC  0DA3               	rlf	??_display_write_byte+1,f
  4577  01ED  0022               	movlb	2	; select bank2
  4578  01EE  080D               	movf	13,w	;volatile
  4579  01EF  0020               	movlb	0	; select bank0
  4580  01F0  0623               	xorwf	??_display_write_byte+1,w
  4581  01F1  39DF               	andlw	-33
  4582  01F2  0623               	xorwf	??_display_write_byte+1,w
  4583  01F3  0022               	movlb	2	; select bank2
  4584  01F4  008D               	movwf	13	;volatile
  4585                           
  4586                           ;display.c: 46:         LATBbits.LATB0 = PIN_LOW;
  4587  01F5  100D               	bcf	13,0	;volatile
  4588                           
  4589                           ;display.c: 47:   display_control595_delay();
  4590  01F6  3182  229A  3181   	fcall	_display_control595_delay
  4591                           
  4592                           ;display.c: 48:         LATBbits.LATB0 = PIN_HIGH;
  4593  01F9  0022               	movlb	2	; select bank2
  4594  01FA  140D               	bsf	13,0	;volatile
  4595                           
  4596                           ;display.c: 49:   display_control595_delay();
  4597  01FB  3182  229A  3181   	fcall	_display_control595_delay
  4598                           
  4599                           ;display.c: 50:         data <<= 1;
  4600  01FE  1003               	clrc
  4601  01FF  0020               	movlb	0	; select bank0
  4602  0200  0DA4               	rlf	display_write_byte@data,f
  4603                           
  4604                           ;display.c: 51:     }
  4605  0201  3001               	movlw	1
  4606  0202  00A2               	movwf	??_display_write_byte
  4607  0203  0822               	movf	??_display_write_byte,w
  4608  0204  07A5               	addwf	display_write_byte@i,f
  4609  0205  29DE               	goto	L1
  4610  0206                     __end_of_display_write_byte:	
  4611                           
  4612                           	psect	text12
  4613  029A                     __ptext12:	
  4614 ;; *************** function _display_control595_delay *****************
  4615 ;; Defined at:
  4616 ;;		line 26 in file "display.c"
  4617 ;; Parameters:    Size  Location     Type
  4618 ;;		None
  4619 ;; Auto vars:     Size  Location     Type
  4620 ;;  times           1    1[BANK0 ] unsigned char 
  4621 ;; Return value:  Size  Location     Type
  4622 ;;                  1    wreg      void 
  4623 ;; Registers used:
  4624 ;;		wreg, status,2, status,0
  4625 ;; Tracked objects:
  4626 ;;		On entry : 0/0
  4627 ;;		On exit  : 0/0
  4628 ;;		Unchanged: 0/0
  4629 ;; Data sizes:     COMMON   BANK0   BANK1   BANK2   BANK3   BANK4   BANK5   BANK6   BANK7   BANK8   BANK9  BANK10  BANK1
      +1  BANK12
  4630 ;;      Params:         0       0       0       0       0       0       0       0       0       0       0       0       
      +0       0
  4631 ;;      Locals:         0       1       0       0       0       0       0       0       0       0       0       0       
      +0       0
  4632 ;;      Temps:          0       1       0       0       0       0       0       0       0       0       0       0       
      +0       0
  4633 ;;      Totals:         0       2       0       0       0       0       0       0       0       0       0       0       
      +0       0
  4634 ;;Total ram usage:        2 bytes
  4635 ;; Hardware stack levels used:    1
  4636 ;; Hardware stack levels required when called:    3
  4637 ;; This function calls:
  4638 ;;		Nothing
  4639 ;; This function is called by:
  4640 ;;		_display_write_byte
  4641 ;;		_display_write_once
  4642 ;; This function uses a non-reentrant model
  4643 ;;
  4644                           
  4645                           
  4646                           ;psect for function _display_control595_delay
  4647  029A                     _display_control595_delay:	
  4648                           
  4649                           ;display.c: 27:    u8 times = 10;
  4650                           
  4651                           ;incstack = 0
  4652                           ; Regs used in _display_control595_delay: [wreg+status,2+status,0]
  4653  029A  300A               	movlw	10
  4654  029B  0020               	movlb	0	; select bank0
  4655  029C  00A0               	movwf	??_display_control595_delay
  4656  029D  0820               	movf	??_display_control595_delay,w
  4657  029E  00A1               	movwf	display_control595_delay@times
  4658  029F                     l358:	
  4659                           ;display.c: 31:    }
  4660                           
  4661                           ;display.c: 28:    while(times > 0){
  4662                           
  4663                           
  4664                           ;display.c: 28:    while(times > 0){
  4665  029F  0821               	movf	display_control595_delay@times,w
  4666  02A0  1903               	btfsc	3,2
  4667  02A1  0008               	return
  4668                           
  4669                           ;display.c: 29:     __nop();
  4670  02A2  0000               	nop
  4671                           
  4672                           ;display.c: 30:        times--;
  4673  02A3  3001               	movlw	1
  4674  02A4  0020               	movlb	0	; select bank0
  4675  02A5  02A1               	subwf	display_control595_delay@times,f
  4676  02A6  2A9F               	goto	l358
  4677  02A7                     __end_of_display_control595_delay:	
  4678                           
  4679                           	psect	text13
  4680  0195                     __ptext13:	
  4681 ;; *************** function ___awmod *****************
  4682 ;; Defined at:
  4683 ;;		line 5 in file "F:\other_software\MPLAB_X_IDE\xc8\v2.00\pic\sources\c99\common\awmod.c"
  4684 ;; Parameters:    Size  Location     Type
  4685 ;;  divisor         2    0[BANK0 ] int 
  4686 ;;  dividend        2    2[BANK0 ] int 
  4687 ;; Auto vars:     Size  Location     Type
  4688 ;;  sign            1    6[BANK0 ] unsigned char 
  4689 ;;  counter         1    5[BANK0 ] unsigned char 
  4690 ;; Return value:  Size  Location     Type
  4691 ;;                  2    0[BANK0 ] int 
  4692 ;; Registers used:
  4693 ;;		wreg, status,2, status,0
  4694 ;; Tracked objects:
  4695 ;;		On entry : 0/0
  4696 ;;		On exit  : 0/0
  4697 ;;		Unchanged: 0/0
  4698 ;; Data sizes:     COMMON   BANK0   BANK1   BANK2   BANK3   BANK4   BANK5   BANK6   BANK7   BANK8   BANK9  BANK10  BANK1
      +1  BANK12
  4699 ;;      Params:         0       4       0       0       0       0       0       0       0       0       0       0       
      +0       0
  4700 ;;      Locals:         0       2       0       0       0       0       0       0       0       0       0       0       
      +0       0
  4701 ;;      Temps:          0       1       0       0       0       0       0       0       0       0       0       0       
      +0       0
  4702 ;;      Totals:         0       7       0       0       0       0       0       0       0       0       0       0       
      +0       0
  4703 ;;Total ram usage:        7 bytes
  4704 ;; Hardware stack levels used:    1
  4705 ;; Hardware stack levels required when called:    3
  4706 ;; This function calls:
  4707 ;;		Nothing
  4708 ;; This function is called by:
  4709 ;;		_display_update
  4710 ;; This function uses a non-reentrant model
  4711 ;;
  4712                           
  4713                           
  4714                           ;psect for function ___awmod
  4715  0195                     ___awmod:	
  4716                           
  4717                           ;incstack = 0
  4718                           ; Regs used in ___awmod: [wreg+status,2+status,0]
  4719  0195  0020               	movlb	0	; select bank0
  4720  0196  01A6               	clrf	___awmod@sign
  4721  0197  1FA3               	btfss	___awmod@dividend+1,7
  4722  0198  29A0               	goto	l2109
  4723  0199  09A2               	comf	___awmod@dividend,f
  4724  019A  09A3               	comf	___awmod@dividend+1,f
  4725  019B  0AA2               	incf	___awmod@dividend,f
  4726  019C  1903               	skipnz
  4727  019D  0AA3               	incf	___awmod@dividend+1,f
  4728  019E  01A6               	clrf	___awmod@sign
  4729  019F  0AA6               	incf	___awmod@sign,f
  4730  01A0                     l2109:	
  4731  01A0  1FA1               	btfss	___awmod@divisor+1,7
  4732  01A1  29A7               	goto	l2113
  4733  01A2  09A0               	comf	___awmod@divisor,f
  4734  01A3  09A1               	comf	___awmod@divisor+1,f
  4735  01A4  0AA0               	incf	___awmod@divisor,f
  4736  01A5  1903               	skipnz
  4737  01A6  0AA1               	incf	___awmod@divisor+1,f
  4738  01A7                     l2113:	
  4739  01A7  0820               	movf	___awmod@divisor,w
  4740  01A8  0421               	iorwf	___awmod@divisor+1,w
  4741  01A9  1903               	btfsc	3,2
  4742  01AA  29CE               	goto	l2131
  4743  01AB  01A5               	clrf	___awmod@counter
  4744  01AC  0AA5               	incf	___awmod@counter,f
  4745  01AD                     l2121:	
  4746  01AD  1BA1               	btfsc	___awmod@divisor+1,7
  4747  01AE  29B9               	goto	l2123
  4748  01AF  3001               	movlw	1
  4749  01B0                     u1405:	
  4750  01B0  35A0               	lslf	___awmod@divisor,f
  4751  01B1  0DA1               	rlf	___awmod@divisor+1,f
  4752  01B2  0B89               	decfsz	9,f
  4753  01B3  29B0               	goto	u1405
  4754  01B4  3001               	movlw	1
  4755  01B5  00A4               	movwf	??___awmod
  4756  01B6  0824               	movf	??___awmod,w
  4757  01B7  07A5               	addwf	___awmod@counter,f
  4758  01B8  29AD               	goto	l2121
  4759  01B9                     l2123:	
  4760  01B9  0821               	movf	___awmod@divisor+1,w
  4761  01BA  0223               	subwf	___awmod@dividend+1,w
  4762  01BB  1D03               	skipz
  4763  01BC  29BF               	goto	u1425
  4764  01BD  0820               	movf	___awmod@divisor,w
  4765  01BE  0222               	subwf	___awmod@dividend,w
  4766  01BF                     u1425:	
  4767  01BF  1C03               	skipc
  4768  01C0  29C5               	goto	l2127
  4769  01C1  0820               	movf	___awmod@divisor,w
  4770  01C2  02A2               	subwf	___awmod@dividend,f
  4771  01C3  0821               	movf	___awmod@divisor+1,w
  4772  01C4  3BA3               	subwfb	___awmod@dividend+1,f
  4773  01C5                     l2127:	
  4774  01C5  3001               	movlw	1
  4775  01C6                     u1435:	
  4776  01C6  36A1               	lsrf	___awmod@divisor+1,f
  4777  01C7  0CA0               	rrf	___awmod@divisor,f
  4778  01C8  0B89               	decfsz	9,f
  4779  01C9  29C6               	goto	u1435
  4780  01CA  3001               	movlw	1
  4781  01CB  02A5               	subwf	___awmod@counter,f
  4782  01CC  1D03               	btfss	3,2
  4783  01CD  29B9               	goto	l2123
  4784  01CE                     l2131:	
  4785  01CE  0826               	movf	___awmod@sign,w
  4786  01CF  1903               	btfsc	3,2
  4787  01D0  29D6               	goto	l2135
  4788  01D1  09A2               	comf	___awmod@dividend,f
  4789  01D2  09A3               	comf	___awmod@dividend+1,f
  4790  01D3  0AA2               	incf	___awmod@dividend,f
  4791  01D4  1903               	skipnz
  4792  01D5  0AA3               	incf	___awmod@dividend+1,f
  4793  01D6                     l2135:	
  4794  01D6  0823               	movf	___awmod@dividend+1,w
  4795  01D7  00A1               	movwf	?___awmod+1
  4796  01D8  0822               	movf	___awmod@dividend,w
  4797  01D9  00A0               	movwf	?___awmod
  4798  01DA  0008               	return
  4799  01DB                     __end_of___awmod:	
  4800                           
  4801                           	psect	text14
  4802  02D9                     __ptext14:	
  4803 ;; *************** function _capture_init *****************
  4804 ;; Defined at:
  4805 ;;		line 25 in file "hardware.c"
  4806 ;; Parameters:    Size  Location     Type
  4807 ;;		None
  4808 ;; Auto vars:     Size  Location     Type
  4809 ;;		None
  4810 ;; Return value:  Size  Location     Type
  4811 ;;                  1    wreg      unsigned char 
  4812 ;; Registers used:
  4813 ;;		wreg, status,2, status,0, pclath, cstack
  4814 ;; Tracked objects:
  4815 ;;		On entry : 0/0
  4816 ;;		On exit  : 0/0
  4817 ;;		Unchanged: 0/0
  4818 ;; Data sizes:     COMMON   BANK0   BANK1   BANK2   BANK3   BANK4   BANK5   BANK6   BANK7   BANK8   BANK9  BANK10  BANK1
      +1  BANK12
  4819 ;;      Params:         0       0       0       0       0       0       0       0       0       0       0       0       
      +0       0
  4820 ;;      Locals:         0       0       0       0       0       0       0       0       0       0       0       0       
      +0       0
  4821 ;;      Temps:          0       0       0       0       0       0       0       0       0       0       0       0       
      +0       0
  4822 ;;      Totals:         0       0       0       0       0       0       0       0       0       0       0       0       
      +0       0
  4823 ;;Total ram usage:        0 bytes
  4824 ;; Hardware stack levels used:    1
  4825 ;; Hardware stack levels required when called:    4
  4826 ;; This function calls:
  4827 ;;		_capture_setEdge
  4828 ;; This function is called by:
  4829 ;;		_main
  4830 ;; This function uses a non-reentrant model
  4831 ;;
  4832                           
  4833                           
  4834                           ;psect for function _capture_init
  4835  02D9                     _capture_init:	
  4836                           
  4837                           ;hardware.c: 28:     capture_setEdge((0b0100));
  4838                           
  4839                           ;incstack = 0
  4840                           ; Regs used in _capture_init: [wreg+status,2+status,0+pclath+cstack]
  4841  02D9  3004               	movlw	4
  4842  02DA  3182  2250         	fcall	_capture_setEdge
  4843                           
  4844                           ;hardware.c: 29:     TRISCbits.TRISC1 = 1;
  4845  02DC  0021               	movlb	1	; select bank1
  4846  02DD  148E               	bsf	14,1	;volatile
  4847                           
  4848                           ;hardware.c: 31:     PIR2bits.CCP2IF = 0;
  4849  02DE  0020               	movlb	0	; select bank0
  4850  02DF  1012               	bcf	18,0	;volatile
  4851  02E0  0008               	return
  4852  02E1                     __end_of_capture_init:	
  4853                           ;hardware.c: 33:     return 0;;	Return value of _capture_init is never used
  4854                           
  4855                           
  4856                           	psect	text15
  4857  0250                     __ptext15:	
  4858 ;; *************** function _capture_setEdge *****************
  4859 ;; Defined at:
  4860 ;;		line 12 in file "hardware.c"
  4861 ;; Parameters:    Size  Location     Type
  4862 ;;  edge            1    wreg     unsigned char 
  4863 ;; Auto vars:     Size  Location     Type
  4864 ;;  edge            1    0[BANK0 ] unsigned char 
  4865 ;; Return value:  Size  Location     Type
  4866 ;;                  2  404[None  ] int 
  4867 ;; Registers used:
  4868 ;;		wreg, status,2, status,0
  4869 ;; Tracked objects:
  4870 ;;		On entry : 0/0
  4871 ;;		On exit  : 0/0
  4872 ;;		Unchanged: 0/0
  4873 ;; Data sizes:     COMMON   BANK0   BANK1   BANK2   BANK3   BANK4   BANK5   BANK6   BANK7   BANK8   BANK9  BANK10  BANK1
      +1  BANK12
  4874 ;;      Params:         0       0       0       0       0       0       0       0       0       0       0       0       
      +0       0
  4875 ;;      Locals:         0       1       0       0       0       0       0       0       0       0       0       0       
      +0       0
  4876 ;;      Temps:          0       0       0       0       0       0       0       0       0       0       0       0       
      +0       0
  4877 ;;      Totals:         0       1       0       0       0       0       0       0       0       0       0       0       
      +0       0
  4878 ;;Total ram usage:        1 bytes
  4879 ;; Hardware stack levels used:    1
  4880 ;; Hardware stack levels required when called:    3
  4881 ;; This function calls:
  4882 ;;		Nothing
  4883 ;; This function is called by:
  4884 ;;		_capture_init
  4885 ;; This function uses a non-reentrant model
  4886 ;;
  4887                           
  4888                           
  4889                           ;psect for function _capture_setEdge
  4890  0250                     _capture_setEdge:	
  4891                           
  4892                           ;incstack = 0
  4893                           ; Regs used in _capture_setEdge: [wreg+status,2+status,0]
  4894                           ;capture_setEdge@edge stored from wreg
  4895  0250  0020               	movlb	0	; select bank0
  4896  0251  00A0               	movwf	capture_setEdge@edge
  4897                           
  4898                           ;hardware.c: 12: static int capture_setEdge(u8 edge);hardware.c: 13: {;hardware.c: 14:  
      +                             if((edge == (0b0101)) || (edge == (0b0100)))
  4899  0252  3005               	movlw	5
  4900  0253  0620               	xorwf	capture_setEdge@edge,w
  4901  0254  1903               	btfsc	3,2
  4902  0255  2A5A               	goto	l2091
  4903  0256  3004               	movlw	4
  4904  0257  0620               	xorwf	capture_setEdge@edge,w
  4905  0258  1D03               	btfss	3,2
  4906  0259  0008               	return
  4907  025A                     l2091:	
  4908                           
  4909                           ;hardware.c: 15:     {;hardware.c: 16:         CCP2CONbits.CCP2M = edge;
  4910  025A  0025               	movlb	5	; select bank5
  4911  025B  081A               	movf	26,w	;volatile
  4912  025C  0020               	movlb	0	; select bank0
  4913  025D  0620               	xorwf	capture_setEdge@edge,w
  4914  025E  39F0               	andlw	-16
  4915  025F  0620               	xorwf	capture_setEdge@edge,w
  4916  0260  0025               	movlb	5	; select bank5
  4917  0261  009A               	movwf	26	;volatile
  4918                           
  4919                           ;hardware.c: 20:     {;hardware.c: 21:         return -1;;	Return value of _capture_setE
      +                          dge is never used
  4920                           
  4921                           ;hardware.c: 19:     else
  4922                           
  4923                           ;hardware.c: 18:     }
  4924                           
  4925                           ;hardware.c: 17:         return 0;;	Return value of _capture_setEdge is never used
  4926  0262  0008               	return
  4927  0263                     __end_of_capture_setEdge:	
  4928                           ;hardware.c: 22:     }
  4929                           
  4930                           
  4931                           	psect	intentry
  4932  0004                     __pintentry:	
  4933 ;; *************** function _ISR *****************
  4934 ;; Defined at:
  4935 ;;		line 196 in file "main.c"
  4936 ;; Parameters:    Size  Location     Type
  4937 ;;		None
  4938 ;; Auto vars:     Size  Location     Type
  4939 ;;		None
  4940 ;; Return value:  Size  Location     Type
  4941 ;;                  1    wreg      void 
  4942 ;; Registers used:
  4943 ;;		wreg, fsr1l, fsr1h, status,2, status,0, pclath, cstack
  4944 ;; Tracked objects:
  4945 ;;		On entry : 0/0
  4946 ;;		On exit  : 0/0
  4947 ;;		Unchanged: 0/0
  4948 ;; Data sizes:     COMMON   BANK0   BANK1   BANK2   BANK3   BANK4   BANK5   BANK6   BANK7   BANK8   BANK9  BANK10  BANK1
      +1  BANK12
  4949 ;;      Params:         0       0       0       0       0       0       0       0       0       0       0       0       
      +0       0
  4950 ;;      Locals:         0       0       0       0       0       0       0       0       0       0       0       0       
      +0       0
  4951 ;;      Temps:          0       0       0       0       0       0       0       0       0       0       0       0       
      +0       0
  4952 ;;      Totals:         0       0       0       0       0       0       0       0       0       0       0       0       
      +0       0
  4953 ;;Total ram usage:        0 bytes
  4954 ;; Hardware stack levels used:    1
  4955 ;; Hardware stack levels required when called:    2
  4956 ;; This function calls:
  4957 ;;		_bpc_proc
  4958 ;;		_capture_IsIntrpt
  4959 ;;		_capture_clrIntrpt
  4960 ;;		_capture_handdle
  4961 ;;		_timer_IsTimer1Itrpt
  4962 ;;		_timer_Timer1Reset
  4963 ;; This function is called by:
  4964 ;;		Interrupt level 1
  4965 ;; This function uses a non-reentrant model
  4966 ;;
  4967                           
  4968  0004                     _ISR:	
  4969                           
  4970                           ;incstack = 0
  4971  0004  147E               	bsf	126,0	;set compiler interrupt flag (level 1)
  4972                           
  4973                           ; Regs used in _ISR: [wreg+fsr1l+fsr1h+status,2+status,0+pclath+cstack]
  4974  0005  3180               	pagesel	$
  4975                           
  4976                           ;main.c: 198: ;main.c: 200:     {
  4977  0006  3182  22E7  3180   	fcall	_timer_IsTimer1Itrpt
  4978  0009  3A00               	xorlw	0
  4979  000A  1903               	skipnz
  4980  000B  280F               	goto	i1l2663
  4981                           
  4982                           ;main.c: 201:         if(i++ == 1000);main.c: 204: 
  4983  000C  3182  22F2  3180   	fcall	_timer_Timer1Reset
  4984  000F                     i1l2663:	
  4985                           ;main.c: 206:         }
  4986                           
  4987                           
  4988                           ;main.c: 208: 
  4989  000F  3182  22EB  3180   	fcall	_capture_IsIntrpt
  4990  0012  3A00               	xorlw	0
  4991  0013  1903               	skipnz
  4992  0014  281D               	goto	i1l125
  4993                           
  4994                           ;main.c: 209:     };main.c: 210:     return;
  4995  0015  3180  2034  3180   	fcall	_capture_handdle
  4996  0018  3182  22F8  3180   	fcall	_bpc_proc
  4997  001B  3182  22F5         	fcall	_capture_clrIntrpt
  4998  001D                     i1l125:	
  4999  001D  107E               	bcf	126,0	;clear compiler interrupt flag (level 1)
  5000  001E  0009               	retfie
  5001  001F                     __end_of_ISR:	
  5002                           
  5003                           	psect	text17
  5004  02F2                     __ptext17:	
  5005 ;; *************** function _timer_Timer1Reset *****************
  5006 ;; Defined at:
  5007 ;;		line 43 in file "timer.c"
  5008 ;; Parameters:    Size  Location     Type
  5009 ;;		None
  5010 ;; Auto vars:     Size  Location     Type
  5011 ;;		None
  5012 ;; Return value:  Size  Location     Type
  5013 ;;                  1    wreg      void 
  5014 ;; Registers used:
  5015 ;;		None
  5016 ;; Tracked objects:
  5017 ;;		On entry : 0/0
  5018 ;;		On exit  : 0/0
  5019 ;;		Unchanged: 0/0
  5020 ;; Data sizes:     COMMON   BANK0   BANK1   BANK2   BANK3   BANK4   BANK5   BANK6   BANK7   BANK8   BANK9  BANK10  BANK1
      +1  BANK12
  5021 ;;      Params:         0       0       0       0       0       0       0       0       0       0       0       0       
      +0       0
  5022 ;;      Locals:         0       0       0       0       0       0       0       0       0       0       0       0       
      +0       0
  5023 ;;      Temps:          0       0       0       0       0       0       0       0       0       0       0       0       
      +0       0
  5024 ;;      Totals:         0       0       0       0       0       0       0       0       0       0       0       0       
      +0       0
  5025 ;;Total ram usage:        0 bytes
  5026 ;; Hardware stack levels used:    1
  5027 ;; This function calls:
  5028 ;;		Nothing
  5029 ;; This function is called by:
  5030 ;;		_ISR
  5031 ;; This function uses a non-reentrant model
  5032 ;;
  5033                           
  5034                           
  5035                           ;psect for function _timer_Timer1Reset
  5036  02F2                     _timer_Timer1Reset:	
  5037                           
  5038                           ;timer.c: 45:     PIR1bits.TMR1IF = 0b0;
  5039                           
  5040                           ;incstack = 0
  5041                           ; Regs used in _timer_Timer1Reset: []
  5042  02F2  0020               	movlb	0	; select bank0
  5043  02F3  1011               	bcf	17,0	;volatile
  5044  02F4  0008               	return
  5045  02F5                     __end_of_timer_Timer1Reset:	
  5046                           
  5047                           	psect	text18
  5048  02E7                     __ptext18:	
  5049 ;; *************** function _timer_IsTimer1Itrpt *****************
  5050 ;; Defined at:
  5051 ;;		line 38 in file "timer.c"
  5052 ;; Parameters:    Size  Location     Type
  5053 ;;		None
  5054 ;; Auto vars:     Size  Location     Type
  5055 ;;		None
  5056 ;; Return value:  Size  Location     Type
  5057 ;;                  1    wreg      enum E5222
  5058 ;; Registers used:
  5059 ;;		wreg, status,2, status,0
  5060 ;; Tracked objects:
  5061 ;;		On entry : 0/0
  5062 ;;		On exit  : 0/0
  5063 ;;		Unchanged: 0/0
  5064 ;; Data sizes:     COMMON   BANK0   BANK1   BANK2   BANK3   BANK4   BANK5   BANK6   BANK7   BANK8   BANK9  BANK10  BANK1
      +1  BANK12
  5065 ;;      Params:         0       0       0       0       0       0       0       0       0       0       0       0       
      +0       0
  5066 ;;      Locals:         0       0       0       0       0       0       0       0       0       0       0       0       
      +0       0
  5067 ;;      Temps:          0       0       0       0       0       0       0       0       0       0       0       0       
      +0       0
  5068 ;;      Totals:         0       0       0       0       0       0       0       0       0       0       0       0       
      +0       0
  5069 ;;Total ram usage:        0 bytes
  5070 ;; Hardware stack levels used:    1
  5071 ;; This function calls:
  5072 ;;		Nothing
  5073 ;; This function is called by:
  5074 ;;		_ISR
  5075 ;; This function uses a non-reentrant model
  5076 ;;
  5077                           
  5078                           
  5079                           ;psect for function _timer_IsTimer1Itrpt
  5080  02E7                     _timer_IsTimer1Itrpt:	
  5081                           
  5082                           ;timer.c: 40:     return (PIR1bits.TMR1IF == 0b1)? TRUE : FALSE;
  5083                           
  5084                           ;incstack = 0
  5085                           ; Regs used in _timer_IsTimer1Itrpt: [wreg+status,2+status,0]
  5086  02E7  0020               	movlb	0	; select bank0
  5087  02E8  0811               	movf	17,w	;volatile
  5088  02E9  3901               	andlw	1
  5089  02EA  0008               	return
  5090  02EB                     __end_of_timer_IsTimer1Itrpt:	
  5091                           
  5092                           	psect	text19
  5093  0034                     __ptext19:	
  5094 ;; *************** function _capture_handdle *****************
  5095 ;; Defined at:
  5096 ;;		line 49 in file "hardware.c"
  5097 ;; Parameters:    Size  Location     Type
  5098 ;;		None
  5099 ;; Auto vars:     Size  Location     Type
  5100 ;;  cnt_tmp         2   12[COMMON] unsigned short 
  5101 ;;  cnt_int         2   10[COMMON] unsigned short 
  5102 ;;  pdata           1    9[COMMON] PTR volatile struct .
  5103 ;;		 -> g_data(39), 
  5104 ;; Return value:  Size  Location     Type
  5105 ;;                  2   72[None  ] int 
  5106 ;; Registers used:
  5107 ;;		wreg, fsr1l, fsr1h, status,2, status,0, pclath, cstack
  5108 ;; Tracked objects:
  5109 ;;		On entry : 0/0
  5110 ;;		On exit  : 0/0
  5111 ;;		Unchanged: 0/0
  5112 ;; Data sizes:     COMMON   BANK0   BANK1   BANK2   BANK3   BANK4   BANK5   BANK6   BANK7   BANK8   BANK9  BANK10  BANK1
      +1  BANK12
  5113 ;;      Params:         0       0       0       0       0       0       0       0       0       0       0       0       
      +0       0
  5114 ;;      Locals:         7       0       0       0       0       0       0       0       0       0       0       0       
      +0       0
  5115 ;;      Temps:          6       0       0       0       0       0       0       0       0       0       0       0       
      +0       0
  5116 ;;      Totals:        13       0       0       0       0       0       0       0       0       0       0       0       
      +0       0
  5117 ;;Total ram usage:       13 bytes
  5118 ;; Hardware stack levels used:    1
  5119 ;; Hardware stack levels required when called:    1
  5120 ;; This function calls:
  5121 ;;		_capture_IsNegEdge
  5122 ;;		i1_capture_setEdge
  5123 ;;		i1_data_getdata
  5124 ;;		i1_led_SetState
  5125 ;; This function is called by:
  5126 ;;		_ISR
  5127 ;; This function uses a non-reentrant model
  5128 ;;
  5129                           
  5130                           
  5131                           ;psect for function _capture_handdle
  5132  0034                     _capture_handdle:	
  5133                           
  5134                           ;hardware.c: 51:     G_DATA *pdata = data_getdata();
  5135                           
  5136                           ;incstack = 0
  5137                           ; Regs used in _capture_handdle: [wreg+fsr1l+fsr1h+status,2+status,0+pclath+cstack]
  5138  0034  3182  22FD  3180   	fcall	i1_data_getdata
  5139  0037  00F1               	movwf	??_capture_handdle
  5140  0038  0871               	movf	??_capture_handdle,w
  5141  0039  00F9               	movwf	capture_handdle@pdata
  5142                           
  5143                           ;hardware.c: 52:     static u16 last_cnt = 0;;hardware.c: 53:     u16 cnt_tmp = 0;
  5144  003A  01FC               	clrf	capture_handdle@cnt_tmp
  5145  003B  01FD               	clrf	capture_handdle@cnt_tmp+1
  5146                           
  5147                           ;hardware.c: 54:     u16 cnt_int = 0;
  5148  003C  01FA               	clrf	capture_handdle@cnt_int
  5149  003D  01FB               	clrf	capture_handdle@cnt_int+1
  5150                           
  5151                           ;hardware.c: 56:     cnt_tmp = CCPR2H;
  5152  003E  0025               	movlb	5	; select bank5
  5153  003F  0819               	movf	25,w	;volatile
  5154  0040  00F1               	movwf	??_capture_handdle
  5155  0041  01F2               	clrf	??_capture_handdle+1
  5156  0042  0871               	movf	??_capture_handdle,w
  5157  0043  00FC               	movwf	capture_handdle@cnt_tmp
  5158  0044  0872               	movf	??_capture_handdle+1,w
  5159  0045  00FD               	movwf	capture_handdle@cnt_tmp+1
  5160                           
  5161                           ;hardware.c: 57:     cnt_tmp = (cnt_tmp << 8) + CCPR2L;
  5162  0046  0818               	movf	24,w	;volatile
  5163  0047  00F1               	movwf	??_capture_handdle
  5164  0048  01F2               	clrf	??_capture_handdle+1
  5165  0049  087C               	movf	capture_handdle@cnt_tmp,w
  5166  004A  00F4               	movwf	??_capture_handdle+3
  5167  004B  01F3               	clrf	??_capture_handdle+2
  5168  004C  0871               	movf	??_capture_handdle,w
  5169  004D  0773               	addwf	??_capture_handdle+2,w
  5170  004E  00F5               	movwf	??_capture_handdle+4
  5171  004F  0872               	movf	??_capture_handdle+1,w
  5172  0050  3D74               	addwfc	??_capture_handdle+3,w
  5173  0051  00F6               	movwf	??_capture_handdle+5
  5174  0052  0875               	movf	??_capture_handdle+4,w
  5175  0053  00FC               	movwf	capture_handdle@cnt_tmp
  5176  0054  0876               	movf	??_capture_handdle+5,w
  5177  0055  00FD               	movwf	capture_handdle@cnt_tmp+1
  5178                           
  5179                           ;hardware.c: 59:     if(cnt_tmp > last_cnt)
  5180  0056  087D               	movf	capture_handdle@cnt_tmp+1,w
  5181  0057  0020               	movlb	0	; select bank0
  5182  0058  0237               	subwf	capture_handdle@last_cnt+1,w
  5183  0059  1D03               	skipz
  5184  005A  285D               	goto	u152_25
  5185  005B  087C               	movf	capture_handdle@cnt_tmp,w
  5186  005C  0236               	subwf	capture_handdle@last_cnt,w
  5187  005D                     u152_25:	
  5188  005D  1803               	skipnc
  5189  005E  286D               	goto	i1l2245
  5190                           
  5191                           ;hardware.c: 60:     {;hardware.c: 61:         cnt_int = cnt_tmp - last_cnt;
  5192  005F  0936               	comf	capture_handdle@last_cnt,w
  5193  0060  00F1               	movwf	??_capture_handdle
  5194  0061  0937               	comf	capture_handdle@last_cnt+1,w
  5195  0062  00F2               	movwf	??_capture_handdle+1
  5196  0063  0AF1               	incf	??_capture_handdle,f
  5197  0064  1903               	skipnz
  5198  0065  0AF2               	incf	??_capture_handdle+1,f
  5199  0066  087C               	movf	capture_handdle@cnt_tmp,w
  5200  0067  0771               	addwf	??_capture_handdle,w
  5201  0068  00FA               	movwf	capture_handdle@cnt_int
  5202  0069  087D               	movf	capture_handdle@cnt_tmp+1,w
  5203  006A  3D72               	addwfc	??_capture_handdle+1,w
  5204  006B  00FB               	movwf	capture_handdle@cnt_int+1
  5205                           
  5206                           ;hardware.c: 62:     }
  5207  006C  287E               	goto	i1l2249
  5208  006D                     i1l2245:	
  5209                           ;hardware.c: 63:     else
  5210                           
  5211                           
  5212                           ;hardware.c: 64:     {;hardware.c: 65:         cnt_int = 0xffff - last_cnt;
  5213  006D  0936               	comf	capture_handdle@last_cnt,w
  5214  006E  00F1               	movwf	??_capture_handdle
  5215  006F  0937               	comf	capture_handdle@last_cnt+1,w
  5216  0070  00F2               	movwf	??_capture_handdle+1
  5217  0071  0AF1               	incf	??_capture_handdle,f
  5218  0072  1903               	skipnz
  5219  0073  0AF2               	incf	??_capture_handdle+1,f
  5220  0074  0871               	movf	??_capture_handdle,w
  5221  0075  3EFF               	addlw	255
  5222  0076  00FA               	movwf	capture_handdle@cnt_int
  5223  0077  30FF               	movlw	255
  5224  0078  3D72               	addwfc	??_capture_handdle+1,w
  5225  0079  00FB               	movwf	capture_handdle@cnt_int+1
  5226                           
  5227                           ;hardware.c: 66:         cnt_int += cnt_tmp;
  5228  007A  087C               	movf	capture_handdle@cnt_tmp,w
  5229  007B  07FA               	addwf	capture_handdle@cnt_int,f
  5230  007C  087D               	movf	capture_handdle@cnt_tmp+1,w
  5231  007D  3DFB               	addwfc	capture_handdle@cnt_int+1,f
  5232  007E                     i1l2249:	
  5233                           ;hardware.c: 67:     }
  5234                           
  5235                           
  5236                           ;hardware.c: 71:     if(capture_IsNegEdge())
  5237  007E  3182  22C7  3180   	fcall	_capture_IsNegEdge
  5238  0081  3A00               	xorlw	0
  5239  0082  1903               	skipnz
  5240  0083  288E               	goto	i1l2255
  5241                           
  5242                           ;hardware.c: 72:     {;hardware.c: 73:         pdata->cnt_high = cnt_int;
  5243  0084  0879               	movf	capture_handdle@pdata,w
  5244  0085  3E23               	addlw	35
  5245  0086  0086               	movwf	6
  5246  0087  0187               	clrf	7
  5247  0088  087A               	movf	capture_handdle@cnt_int,w
  5248  0089  3FC0               	movwi [0]fsr1
  5249  008A  087B               	movf	capture_handdle@cnt_int+1,w
  5250  008B  3FC1               	movwi [1]fsr1
  5251                           
  5252                           ;hardware.c: 74:         led_SetState(FALSE);
  5253  008C  3000               	movlw	0
  5254  008D  2897               	goto	L3
  5255  008E                     i1l2255:	
  5256                           ;hardware.c: 76:     else
  5257                           
  5258                           ;hardware.c: 75:     }
  5259                           
  5260                           
  5261                           ;hardware.c: 77:     {;hardware.c: 78:         pdata->cnt_low = cnt_int;
  5262  008E  0879               	movf	capture_handdle@pdata,w
  5263  008F  3E25               	addlw	37
  5264  0090  0086               	movwf	6
  5265  0091  0187               	clrf	7
  5266  0092  087A               	movf	capture_handdle@cnt_int,w
  5267  0093  3FC0               	movwi [0]fsr1
  5268  0094  087B               	movf	capture_handdle@cnt_int+1,w
  5269  0095  3FC1               	movwi [1]fsr1
  5270                           
  5271                           ;hardware.c: 79:         led_SetState(TRUE);
  5272  0096  3001               	movlw	1
  5273  0097                     L3:	
  5274  0097  3182  22BD  3180   	fcall	i1_led_SetState
  5275                           
  5276                           ;hardware.c: 82:     last_cnt = cnt_tmp;
  5277                           
  5278                           ;hardware.c: 80:     }
  5279  009A  087D               	movf	capture_handdle@cnt_tmp+1,w
  5280  009B  0020               	movlb	0	; select bank0
  5281  009C  00B7               	movwf	capture_handdle@last_cnt+1
  5282  009D  087C               	movf	capture_handdle@cnt_tmp,w
  5283  009E  00B6               	movwf	capture_handdle@last_cnt
  5284                           
  5285                           ;hardware.c: 85:     capture_setEdge( (capture_IsNegEdge())? (0b0101) : (0b0100));
  5286  009F  3182  22C7  3180   	fcall	_capture_IsNegEdge
  5287  00A2  3A00               	xorlw	0
  5288  00A3  1D03               	skipz
  5289  00A4  28A7               	goto	i1l2265
  5290  00A5  3004               	movlw	4
  5291  00A6  28A8               	goto	L2
  5292  00A7                     i1l2265:	
  5293  00A7  3005               	movlw	5
  5294  00A8                     L2:	
  5295  00A8  00F7               	movwf	_capture_handdle$1239
  5296  00A9  3000               	movlw	0
  5297  00AA  00F8               	movwf	_capture_handdle$1239+1
  5298  00AB  0877               	movf	_capture_handdle$1239,w
  5299  00AC  3182  2263         	fcall	i1_capture_setEdge
  5300  00AE  0008               	return
  5301  00AF                     __end_of_capture_handdle:	
  5302                           ;hardware.c: 87:     return 0;;	Return value of _capture_handdle is never used
  5303                           
  5304                           
  5305                           	psect	text20
  5306  02BD                     __ptext20:	
  5307 ;; *************** function i1_led_SetState *****************
  5308 ;; Defined at:
  5309 ;;		line 94 in file "hardware.c"
  5310 ;; Parameters:    Size  Location     Type
  5311 ;;  isOn            1    wreg     unsigned char 
  5312 ;; Auto vars:     Size  Location     Type
  5313 ;;  isOn            1    0[COMMON] unsigned char 
  5314 ;; Return value:  Size  Location     Type
  5315 ;;                  1    wreg      unsigned char 
  5316 ;; Registers used:
  5317 ;;		wreg, status,2, status,0
  5318 ;; Tracked objects:
  5319 ;;		On entry : 0/0
  5320 ;;		On exit  : 0/0
  5321 ;;		Unchanged: 0/0
  5322 ;; Data sizes:     COMMON   BANK0   BANK1   BANK2   BANK3   BANK4   BANK5   BANK6   BANK7   BANK8   BANK9  BANK10  BANK1
      +1  BANK12
  5323 ;;      Params:         0       0       0       0       0       0       0       0       0       0       0       0       
      +0       0
  5324 ;;      Locals:         1       0       0       0       0       0       0       0       0       0       0       0       
      +0       0
  5325 ;;      Temps:          0       0       0       0       0       0       0       0       0       0       0       0       
      +0       0
  5326 ;;      Totals:         1       0       0       0       0       0       0       0       0       0       0       0       
      +0       0
  5327 ;;Total ram usage:        1 bytes
  5328 ;; Hardware stack levels used:    1
  5329 ;; This function calls:
  5330 ;;		Nothing
  5331 ;; This function is called by:
  5332 ;;		_capture_handdle
  5333 ;; This function uses a non-reentrant model
  5334 ;;
  5335                           
  5336                           
  5337                           ;psect for function i1_led_SetState
  5338  02BD                     i1_led_SetState:	
  5339                           
  5340                           ;incstack = 0
  5341                           ; Regs used in i1_led_SetState: [wreg+status,2+status,0]
  5342                           ;i1led_SetState@isOn stored from wreg
  5343  02BD  00F0               	movwf	i1led_SetState@isOn
  5344                           
  5345                           ;hardware.c: 94: u8 led_SetState(u8 isOn);hardware.c: 95: {;hardware.c: 96:     LATBbits
      +                          .LATB3 = (isOn)? LED_STATE_ON : LED_STATE_OFF;
  5346  02BE  0870               	movf	i1led_SetState@isOn,w
  5347  02BF  1D03               	btfss	3,2
  5348  02C0  2AC4               	goto	u148_20
  5349  02C1  0022               	movlb	2	; select bank2
  5350  02C2  158D               	bsf	13,3	;volatile
  5351  02C3  0008               	return
  5352  02C4                     u148_20:	
  5353  02C4  0022               	movlb	2	; select bank2
  5354  02C5  118D               	bcf	13,3	;volatile
  5355  02C6  0008               	return
  5356  02C7                     __end_ofi1_led_SetState:	
  5357                           ;hardware.c: 97:     return 0;;	Return value of i1_led_SetState is never used
  5358                           
  5359                           
  5360                           	psect	text21
  5361  02FD                     __ptext21:	
  5362 ;; *************** function i1_data_getdata *****************
  5363 ;; Defined at:
  5364 ;;		line 9 in file "data.c"
  5365 ;; Parameters:    Size  Location     Type
  5366 ;;		None
  5367 ;; Auto vars:     Size  Location     Type
  5368 ;;		None
  5369 ;; Return value:  Size  Location     Type
  5370 ;;                  1    wreg      PTR volatile struct .
  5371 ;; Registers used:
  5372 ;;		wreg
  5373 ;; Tracked objects:
  5374 ;;		On entry : 0/0
  5375 ;;		On exit  : 0/0
  5376 ;;		Unchanged: 0/0
  5377 ;; Data sizes:     COMMON   BANK0   BANK1   BANK2   BANK3   BANK4   BANK5   BANK6   BANK7   BANK8   BANK9  BANK10  BANK1
      +1  BANK12
  5378 ;;      Params:         0       0       0       0       0       0       0       0       0       0       0       0       
      +0       0
  5379 ;;      Locals:         0       0       0       0       0       0       0       0       0       0       0       0       
      +0       0
  5380 ;;      Temps:          0       0       0       0       0       0       0       0       0       0       0       0       
      +0       0
  5381 ;;      Totals:         0       0       0       0       0       0       0       0       0       0       0       0       
      +0       0
  5382 ;;Total ram usage:        0 bytes
  5383 ;; Hardware stack levels used:    1
  5384 ;; This function calls:
  5385 ;;		Nothing
  5386 ;; This function is called by:
  5387 ;;		_capture_handdle
  5388 ;; This function uses a non-reentrant model
  5389 ;;
  5390                           
  5391                           
  5392                           ;psect for function i1_data_getdata
  5393  02FD                     i1_data_getdata:	
  5394                           
  5395                           ;data.c: 11:     return &g_data;
  5396                           
  5397                           ;incstack = 0
  5398                           ; Regs used in i1_data_getdata: [wreg]
  5399  02FD  30A0               	movlw	(low (_g_data| 0))& (0+255)
  5400  02FE  0008               	return
  5401  02FF                     __end_ofi1_data_getdata:	
  5402                           
  5403                           	psect	text22
  5404  0263                     __ptext22:	
  5405 ;; *************** function i1_capture_setEdge *****************
  5406 ;; Defined at:
  5407 ;;		line 12 in file "hardware.c"
  5408 ;; Parameters:    Size  Location     Type
  5409 ;;  edge            1    wreg     unsigned char 
  5410 ;; Auto vars:     Size  Location     Type
  5411 ;;  edge            1    0[COMMON] unsigned char 
  5412 ;; Return value:  Size  Location     Type
  5413 ;;                  2    0[None  ] int 
  5414 ;; Registers used:
  5415 ;;		wreg, status,2, status,0
  5416 ;; Tracked objects:
  5417 ;;		On entry : 0/0
  5418 ;;		On exit  : 0/0
  5419 ;;		Unchanged: 0/0
  5420 ;; Data sizes:     COMMON   BANK0   BANK1   BANK2   BANK3   BANK4   BANK5   BANK6   BANK7   BANK8   BANK9  BANK10  BANK1
      +1  BANK12
  5421 ;;      Params:         0       0       0       0       0       0       0       0       0       0       0       0       
      +0       0
  5422 ;;      Locals:         1       0       0       0       0       0       0       0       0       0       0       0       
      +0       0
  5423 ;;      Temps:          0       0       0       0       0       0       0       0       0       0       0       0       
      +0       0
  5424 ;;      Totals:         1       0       0       0       0       0       0       0       0       0       0       0       
      +0       0
  5425 ;;Total ram usage:        1 bytes
  5426 ;; Hardware stack levels used:    1
  5427 ;; This function calls:
  5428 ;;		Nothing
  5429 ;; This function is called by:
  5430 ;;		_capture_handdle
  5431 ;; This function uses a non-reentrant model
  5432 ;;
  5433                           
  5434                           
  5435                           ;psect for function i1_capture_setEdge
  5436  0263                     i1_capture_setEdge:	
  5437                           
  5438                           ;incstack = 0
  5439                           ; Regs used in i1_capture_setEdge: [wreg+status,2+status,0]
  5440                           ;i1capture_setEdge@edge stored from wreg
  5441  0263  00F0               	movwf	i1capture_setEdge@edge
  5442                           
  5443                           ;hardware.c: 12: static int capture_setEdge(u8 edge);hardware.c: 13: {;hardware.c: 14:  
      +                             if((edge == (0b0101)) || (edge == (0b0100)))
  5444  0264  3005               	movlw	5
  5445  0265  0670               	xorwf	i1capture_setEdge@edge,w
  5446  0266  1903               	btfsc	3,2
  5447  0267  2A6C               	goto	i1l2147
  5448  0268  3004               	movlw	4
  5449  0269  0670               	xorwf	i1capture_setEdge@edge,w
  5450  026A  1D03               	btfss	3,2
  5451  026B  0008               	return
  5452  026C                     i1l2147:	
  5453                           
  5454                           ;hardware.c: 15:     {;hardware.c: 16:         CCP2CONbits.CCP2M = edge;
  5455  026C  0025               	movlb	5	; select bank5
  5456  026D  081A               	movf	26,w	;volatile
  5457  026E  0670               	xorwf	i1capture_setEdge@edge,w
  5458  026F  39F0               	andlw	-16
  5459  0270  0670               	xorwf	i1capture_setEdge@edge,w
  5460  0271  009A               	movwf	26	;volatile
  5461                           
  5462                           ;hardware.c: 20:     {;hardware.c: 21:         return -1;;	Return value of i1_capture_se
      +                          tEdge is never used
  5463                           
  5464                           ;hardware.c: 19:     else
  5465                           
  5466                           ;hardware.c: 18:     }
  5467                           
  5468                           ;hardware.c: 17:         return 0;;	Return value of i1_capture_setEdge is never used
  5469  0272  0008               	return
  5470  0273                     __end_ofi1_capture_setEdge:	
  5471                           ;hardware.c: 22:     }
  5472                           
  5473                           
  5474                           	psect	text23
  5475  02C7                     __ptext23:	
  5476 ;; *************** function _capture_IsNegEdge *****************
  5477 ;; Defined at:
  5478 ;;		line 44 in file "hardware.c"
  5479 ;; Parameters:    Size  Location     Type
  5480 ;;		None
  5481 ;; Auto vars:     Size  Location     Type
  5482 ;;		None
  5483 ;; Return value:  Size  Location     Type
  5484 ;;                  1    wreg      enum E5222
  5485 ;; Registers used:
  5486 ;;		wreg, status,2, status,0
  5487 ;; Tracked objects:
  5488 ;;		On entry : 0/0
  5489 ;;		On exit  : 0/0
  5490 ;;		Unchanged: 0/0
  5491 ;; Data sizes:     COMMON   BANK0   BANK1   BANK2   BANK3   BANK4   BANK5   BANK6   BANK7   BANK8   BANK9  BANK10  BANK1
      +1  BANK12
  5492 ;;      Params:         0       0       0       0       0       0       0       0       0       0       0       0       
      +0       0
  5493 ;;      Locals:         0       0       0       0       0       0       0       0       0       0       0       0       
      +0       0
  5494 ;;      Temps:          0       0       0       0       0       0       0       0       0       0       0       0       
      +0       0
  5495 ;;      Totals:         0       0       0       0       0       0       0       0       0       0       0       0       
      +0       0
  5496 ;;Total ram usage:        0 bytes
  5497 ;; Hardware stack levels used:    1
  5498 ;; This function calls:
  5499 ;;		Nothing
  5500 ;; This function is called by:
  5501 ;;		_capture_handdle
  5502 ;; This function uses a non-reentrant model
  5503 ;;
  5504                           
  5505                           
  5506                           ;psect for function _capture_IsNegEdge
  5507  02C7                     _capture_IsNegEdge:	
  5508                           
  5509                           ;hardware.c: 46:     return (CCP2CONbits.CCP2M == (0b0100))? TRUE : FALSE;
  5510                           
  5511                           ;incstack = 0
  5512                           ; Regs used in _capture_IsNegEdge: [wreg+status,2+status,0]
  5513  02C7  0025               	movlb	5	; select bank5
  5514  02C8  081A               	movf	26,w	;volatile
  5515  02C9  390F               	andlw	15
  5516  02CA  3A04               	xorlw	4
  5517  02CB  1D03               	btfss	3,2
  5518  02CC  2ACF               	goto	u135_20
  5519  02CD  3001               	movlw	1
  5520  02CE  0008               	return
  5521  02CF                     u135_20:	
  5522  02CF  3000               	movlw	0
  5523  02D0  0008               	return
  5524  02D1                     __end_of_capture_IsNegEdge:	
  5525                           
  5526                           	psect	text24
  5527  02F5                     __ptext24:	
  5528 ;; *************** function _capture_clrIntrpt *****************
  5529 ;; Defined at:
  5530 ;;		line 40 in file "hardware.c"
  5531 ;; Parameters:    Size  Location     Type
  5532 ;;		None
  5533 ;; Auto vars:     Size  Location     Type
  5534 ;;		None
  5535 ;; Return value:  Size  Location     Type
  5536 ;;                  1    wreg      void 
  5537 ;; Registers used:
  5538 ;;		None
  5539 ;; Tracked objects:
  5540 ;;		On entry : 0/0
  5541 ;;		On exit  : 0/0
  5542 ;;		Unchanged: 0/0
  5543 ;; Data sizes:     COMMON   BANK0   BANK1   BANK2   BANK3   BANK4   BANK5   BANK6   BANK7   BANK8   BANK9  BANK10  BANK1
      +1  BANK12
  5544 ;;      Params:         0       0       0       0       0       0       0       0       0       0       0       0       
      +0       0
  5545 ;;      Locals:         0       0       0       0       0       0       0       0       0       0       0       0       
      +0       0
  5546 ;;      Temps:          0       0       0       0       0       0       0       0       0       0       0       0       
      +0       0
  5547 ;;      Totals:         0       0       0       0       0       0       0       0       0       0       0       0       
      +0       0
  5548 ;;Total ram usage:        0 bytes
  5549 ;; Hardware stack levels used:    1
  5550 ;; This function calls:
  5551 ;;		Nothing
  5552 ;; This function is called by:
  5553 ;;		_ISR
  5554 ;; This function uses a non-reentrant model
  5555 ;;
  5556                           
  5557                           
  5558                           ;psect for function _capture_clrIntrpt
  5559  02F5                     _capture_clrIntrpt:	
  5560                           
  5561                           ;hardware.c: 42:     PIR2bits.CCP2IF = 0;
  5562                           
  5563                           ;incstack = 0
  5564                           ; Regs used in _capture_clrIntrpt: []
  5565  02F5  0020               	movlb	0	; select bank0
  5566  02F6  1012               	bcf	18,0	;volatile
  5567  02F7  0008               	return
  5568  02F8                     __end_of_capture_clrIntrpt:	
  5569                           
  5570                           	psect	text25
  5571  02EB                     __ptext25:	
  5572 ;; *************** function _capture_IsIntrpt *****************
  5573 ;; Defined at:
  5574 ;;		line 36 in file "hardware.c"
  5575 ;; Parameters:    Size  Location     Type
  5576 ;;		None
  5577 ;; Auto vars:     Size  Location     Type
  5578 ;;		None
  5579 ;; Return value:  Size  Location     Type
  5580 ;;                  1    wreg      enum E5222
  5581 ;; Registers used:
  5582 ;;		wreg, status,2, status,0
  5583 ;; Tracked objects:
  5584 ;;		On entry : 0/0
  5585 ;;		On exit  : 0/0
  5586 ;;		Unchanged: 0/0
  5587 ;; Data sizes:     COMMON   BANK0   BANK1   BANK2   BANK3   BANK4   BANK5   BANK6   BANK7   BANK8   BANK9  BANK10  BANK1
      +1  BANK12
  5588 ;;      Params:         0       0       0       0       0       0       0       0       0       0       0       0       
      +0       0
  5589 ;;      Locals:         0       0       0       0       0       0       0       0       0       0       0       0       
      +0       0
  5590 ;;      Temps:          0       0       0       0       0       0       0       0       0       0       0       0       
      +0       0
  5591 ;;      Totals:         0       0       0       0       0       0       0       0       0       0       0       0       
      +0       0
  5592 ;;Total ram usage:        0 bytes
  5593 ;; Hardware stack levels used:    1
  5594 ;; This function calls:
  5595 ;;		Nothing
  5596 ;; This function is called by:
  5597 ;;		_ISR
  5598 ;; This function uses a non-reentrant model
  5599 ;;
  5600                           
  5601                           
  5602                           ;psect for function _capture_IsIntrpt
  5603  02EB                     _capture_IsIntrpt:	
  5604                           
  5605                           ;hardware.c: 38:     return (PIR2bits.CCP2IF == 0b1)? TRUE : FALSE;
  5606                           
  5607                           ;incstack = 0
  5608                           ; Regs used in _capture_IsIntrpt: [wreg+status,2+status,0]
  5609  02EB  0020               	movlb	0	; select bank0
  5610  02EC  0812               	movf	18,w	;volatile
  5611  02ED  3901               	andlw	1
  5612  02EE  0008               	return
  5613  02EF                     __end_of_capture_IsIntrpt:	
  5614                           
  5615                           	psect	text26
  5616  02F8                     __ptext26:	
  5617 ;; *************** function _bpc_proc *****************
  5618 ;; Defined at:
  5619 ;;		line 29 in file "bpc.c"
  5620 ;; Parameters:    Size  Location     Type
  5621 ;;		None
  5622 ;; Auto vars:     Size  Location     Type
  5623 ;;		None
  5624 ;; Return value:  Size  Location     Type
  5625 ;;                  2   74[None  ] int 
  5626 ;; Registers used:
  5627 ;;		status,2, status,0, pclath, cstack
  5628 ;; Tracked objects:
  5629 ;;		On entry : 0/0
  5630 ;;		On exit  : 0/0
  5631 ;;		Unchanged: 0/0
  5632 ;; Data sizes:     COMMON   BANK0   BANK1   BANK2   BANK3   BANK4   BANK5   BANK6   BANK7   BANK8   BANK9  BANK10  BANK1
      +1  BANK12
  5633 ;;      Params:         0       0       0       0       0       0       0       0       0       0       0       0       
      +0       0
  5634 ;;      Locals:         0       0       0       0       0       0       0       0       0       0       0       0       
      +0       0
  5635 ;;      Temps:          0       0       0       0       0       0       0       0       0       0       0       0       
      +0       0
  5636 ;;      Totals:         0       0       0       0       0       0       0       0       0       0       0       0       
      +0       0
  5637 ;;Total ram usage:        0 bytes
  5638 ;; Hardware stack levels used:    1
  5639 ;; Hardware stack levels required when called:    1
  5640 ;; This function calls:
  5641 ;;		_bpc_Cnt2Qua
  5642 ;; This function is called by:
  5643 ;;		_ISR
  5644 ;; This function uses a non-reentrant model
  5645 ;;
  5646                           
  5647                           
  5648                           ;psect for function _bpc_proc
  5649  02F8                     _bpc_proc:	
  5650                           
  5651                           ;bpc.c: 31:     bpc_Cnt2Qua();
  5652                           
  5653                           ;incstack = 0
  5654                           ; Regs used in _bpc_proc: [status,2+status,0+pclath+cstack]
  5655  02F8  3182  22FF         	fcall	_bpc_Cnt2Qua
  5656  02FA  0008               	return
  5657  02FB                     __end_of_bpc_proc:	
  5658                           ;bpc.c: 33:     return 0;;	Return value of _bpc_proc is never used
  5659                           
  5660                           
  5661                           	psect	text27
  5662  02FF                     __ptext27:	
  5663 ;; *************** function _bpc_Cnt2Qua *****************
  5664 ;; Defined at:
  5665 ;;		line 19 in file "bpc.c"
  5666 ;; Parameters:    Size  Location     Type
  5667 ;;		None
  5668 ;; Auto vars:     Size  Location     Type
  5669 ;;		None
  5670 ;; Return value:  Size  Location     Type
  5671 ;;                  1    wreg      unsigned char 
  5672 ;; Registers used:
  5673 ;;		None
  5674 ;; Tracked objects:
  5675 ;;		On entry : 0/0
  5676 ;;		On exit  : 0/0
  5677 ;;		Unchanged: 0/0
  5678 ;; Data sizes:     COMMON   BANK0   BANK1   BANK2   BANK3   BANK4   BANK5   BANK6   BANK7   BANK8   BANK9  BANK10  BANK1
      +1  BANK12
  5679 ;;      Params:         0       0       0       0       0       0       0       0       0       0       0       0       
      +0       0
  5680 ;;      Locals:         0       0       0       0       0       0       0       0       0       0       0       0       
      +0       0
  5681 ;;      Temps:          0       0       0       0       0       0       0       0       0       0       0       0       
      +0       0
  5682 ;;      Totals:         0       0       0       0       0       0       0       0       0       0       0       0       
      +0       0
  5683 ;;Total ram usage:        0 bytes
  5684 ;; Hardware stack levels used:    1
  5685 ;; This function calls:
  5686 ;;		Nothing
  5687 ;; This function is called by:
  5688 ;;		_bpc_proc
  5689 ;; This function uses a non-reentrant model
  5690 ;;
  5691                           
  5692                           
  5693                           ;psect for function _bpc_Cnt2Qua
  5694  02FF                     _bpc_Cnt2Qua:	
  5695                           
  5696                           ;bpc.c: 24:     return 0;;	Return value of _bpc_Cnt2Qua is never used
  5697                           
  5698                           ;incstack = 0
  5699                           ; Regs used in _bpc_Cnt2Qua: []
  5700  02FF  0008               	return
  5701  0300                     __end_of_bpc_Cnt2Qua:	
  5702  007E                     btemp	set	126	;btemp
  5703  007E                     int$flags	set	126
  5704  007E                     wtemp0	set	126


Data Sizes:
    Strings     0
    Constant    11
    Data        0
    BSS         59
    Persistent  0
    Stack       0

Auto Spaces:
    Space          Size  Autos    Used
    COMMON           14     14      14
    BANK0            80     22      42
    BANK1            80      0      39
    BANK2            80      0       0
    BANK3            80      0       0
    BANK4            80      0       0
    BANK5            80      0       0
    BANK6            80      0       0
    BANK7            80      0       0
    BANK8            80      0       0
    BANK9            80      0       0
    BANK10           80      0       0
    BANK11           80      0       0
    BANK12           48      0       0

Pointer List with Targets:

    capture_handdle@pdata	PTR volatile struct . size(1) Largest target is 39
		 -> g_data(BANK1[39]), 

    sp__data_getdata	PTR volatile struct . size(1) Largest target is 39
		 -> g_data(BANK1[39]), 

    init_env@pdata	PTR volatile struct . size(1) Largest target is 39
		 -> g_data(BANK1[39]), 


Critical Paths under _main in COMMON

    None.

Critical Paths under _ISR in COMMON

    _ISR->_capture_handdle
    _capture_handdle->i1_capture_setEdge
    _capture_handdle->i1_led_SetState

Critical Paths under _main in BANK0

    _main->_display_update
    _init_env->_display_set
    _display_update->_display_write_once
    _display_write_once->___awmod
    _display_write_byte->_display_control595_delay
    _capture_init->_capture_setEdge

Critical Paths under _ISR in BANK0

    None.

Critical Paths under _main in BANK1

    None.

Critical Paths under _ISR in BANK1

    None.

Critical Paths under _main in BANK2

    None.

Critical Paths under _ISR in BANK2

    None.

Critical Paths under _main in BANK3

    None.

Critical Paths under _ISR in BANK3

    None.

Critical Paths under _main in BANK4

    None.

Critical Paths under _ISR in BANK4

    None.

Critical Paths under _main in BANK5

    None.

Critical Paths under _ISR in BANK5

    None.

Critical Paths under _main in BANK6

    None.

Critical Paths under _ISR in BANK6

    None.

Critical Paths under _main in BANK7

    None.

Critical Paths under _ISR in BANK7

    None.

Critical Paths under _main in BANK8

    None.

Critical Paths under _ISR in BANK8

    None.

Critical Paths under _main in BANK9

    None.

Critical Paths under _ISR in BANK9

    None.

Critical Paths under _main in BANK10

    None.

Critical Paths under _ISR in BANK10

    None.

Critical Paths under _main in BANK11

    None.

Critical Paths under _ISR in BANK11

    None.

Critical Paths under _main in BANK12

    None.

Critical Paths under _ISR in BANK12

    None.

Call Graph Tables:

 ---------------------------------------------------------------------------------
 (Depth) Function   	        Calls       Base Space   Used Autos Params    Refs
 ---------------------------------------------------------------------------------
 (0) _main                                                 0     0      0    1560
                       _capture_init
                        _display_set
                     _display_update
                           _init_env
                       _led_SetState
                   _timer_Timer1Init
                  _timer_Timer1Start
 ---------------------------------------------------------------------------------
 (1) _timer_Timer1Start                                    0     0      0       0
 ---------------------------------------------------------------------------------
 (1) _timer_Timer1Init                                     0     0      0       0
 ---------------------------------------------------------------------------------
 (1) _led_SetState                                         1     1      0      22
                                              0 BANK0      1     1      0
 ---------------------------------------------------------------------------------
 (1) _init_env                                             5     5      0     113
                                              1 BANK0      5     5      0
                           _IIC_Init
                       _data_getdata
                        _display_set
                         _timer_init
 ---------------------------------------------------------------------------------
 (2) _timer_init                                           0     0      0       0
 ---------------------------------------------------------------------------------
 (2) _display_set                                          1     1      0      22
                                              0 BANK0      1     1      0
 ---------------------------------------------------------------------------------
 (2) _data_getdata                                         0     0      0       0
 ---------------------------------------------------------------------------------
 (2) _IIC_Init                                             0     0      0       0
 ---------------------------------------------------------------------------------
 (1) _display_update                                      11    11      0    1337
                                             11 BANK0     11    11      0
                            ___awmod
                 _display_write_once
 ---------------------------------------------------------------------------------
 (2) _display_write_once                                   4     1      3     433
                                              7 BANK0      4     1      3
                            ___awmod (ARG)
           _display_control595_delay
                 _display_write_byte
 ---------------------------------------------------------------------------------
 (3) _display_write_byte                                   4     4      0      93
                                              2 BANK0      4     4      0
           _display_control595_delay
 ---------------------------------------------------------------------------------
 (4) _display_control595_delay                             2     2      0      24
                                              0 BANK0      2     2      0
 ---------------------------------------------------------------------------------
 (2) ___awmod                                              7     3      4     904
                                              0 BANK0      7     3      4
 ---------------------------------------------------------------------------------
 (1) _capture_init                                         0     0      0      66
                    _capture_setEdge
 ---------------------------------------------------------------------------------
 (2) _capture_setEdge                                      1     1      0      66
                                              0 BANK0      1     1      0
 ---------------------------------------------------------------------------------
 Estimated maximum stack depth 4
 ---------------------------------------------------------------------------------
 (Depth) Function   	        Calls       Base Space   Used Autos Params    Refs
 ---------------------------------------------------------------------------------
 (5) _ISR                                                  0     0      0     318
                           _bpc_proc
                   _capture_IsIntrpt
                  _capture_clrIntrpt
                    _capture_handdle
                _timer_IsTimer1Itrpt
                  _timer_Timer1Reset
 ---------------------------------------------------------------------------------
 (6) _timer_Timer1Reset                                    0     0      0       0
 ---------------------------------------------------------------------------------
 (6) _timer_IsTimer1Itrpt                                  0     0      0       0
 ---------------------------------------------------------------------------------
 (6) _capture_handdle                                     13    13      0     318
                                              1 COMMON    13    13      0
                  _capture_IsNegEdge
                  i1_capture_setEdge
                     i1_data_getdata
                     i1_led_SetState
 ---------------------------------------------------------------------------------
 (7) i1_led_SetState                                       1     1      0      22
                                              0 COMMON     1     1      0
 ---------------------------------------------------------------------------------
 (7) i1_data_getdata                                       0     0      0       0
 ---------------------------------------------------------------------------------
 (7) i1_capture_setEdge                                    1     1      0      66
                                              0 COMMON     1     1      0
 ---------------------------------------------------------------------------------
 (7) _capture_IsNegEdge                                    0     0      0       0
 ---------------------------------------------------------------------------------
 (6) _capture_clrIntrpt                                    0     0      0       0
 ---------------------------------------------------------------------------------
 (6) _capture_IsIntrpt                                     0     0      0       0
 ---------------------------------------------------------------------------------
 (6) _bpc_proc                                             0     0      0       0
                        _bpc_Cnt2Qua
 ---------------------------------------------------------------------------------
 (7) _bpc_Cnt2Qua                                          0     0      0       0
 ---------------------------------------------------------------------------------
 Estimated maximum stack depth 7
 ---------------------------------------------------------------------------------

 Call Graph Graphs:

 _main (ROOT)
   _capture_init
     _capture_setEdge
   _display_set
   _display_update
     ___awmod
     _display_write_once
       ___awmod (ARG)
       _display_control595_delay (ARG)
       _display_write_byte (ARG)
         _display_control595_delay
   _init_env
     _IIC_Init
     _data_getdata
     _display_set
     _timer_init
   _led_SetState
   _timer_Timer1Init
   _timer_Timer1Start

 _ISR (ROOT)
   _bpc_proc
     _bpc_Cnt2Qua
   _capture_IsIntrpt
   _capture_clrIntrpt
   _capture_handdle
     _capture_IsNegEdge
     i1_capture_setEdge
     i1_data_getdata
     i1_led_SetState
   _timer_IsTimer1Itrpt
   _timer_Timer1Reset

 Address spaces:
Name               Size   Autos  Total    Cost      Usage
BIGRAM             3F0      0       0       0        0.0%
EEDATA             100      0       0       0        0.0%
NULL                 0      0       0       0        0.0%
CODE                 0      0       0       0        0.0%
BITCOMMON            E      0       0       1        0.0%
BITSFR0              0      0       0       1        0.0%
SFR0                 0      0       0       1        0.0%
COMMON               E      E       E       2      100.0%
BITSFR1              0      0       0       2        0.0%
SFR1                 0      0       0       2        0.0%
BITSFR2              0      0       0       3        0.0%
SFR2                 0      0       0       3        0.0%
STACK                0      0       0       3        0.0%
BITBANK0            50      0       0       4        0.0%
BITSFR3              0      0       0       4        0.0%
SFR3                 0      0       0       4        0.0%
BANK0               50     16      2A       5       52.5%
BITSFR4              0      0       0       5        0.0%
SFR4                 0      0       0       5        0.0%
BITBANK1            50      0       0       6        0.0%
BITSFR5              0      0       0       6        0.0%
SFR5                 0      0       0       6        0.0%
BANK1               50      0      27       7       48.8%
BITSFR6              0      0       0       7        0.0%
SFR6                 0      0       0       7        0.0%
BITBANK2            50      0       0       8        0.0%
BITSFR7              0      0       0       8        0.0%
SFR7                 0      0       0       8        0.0%
BANK2               50      0       0       9        0.0%
BITSFR8              0      0       0       9        0.0%
SFR8                 0      0       0       9        0.0%
BITBANK3            50      0       0      10        0.0%
BITSFR9              0      0       0      10        0.0%
SFR9                 0      0       0      10        0.0%
BANK3               50      0       0      11        0.0%
BITSFR10             0      0       0      11        0.0%
SFR10                0      0       0      11        0.0%
BITBANK4            50      0       0      12        0.0%
BITSFR11             0      0       0      12        0.0%
SFR11                0      0       0      12        0.0%
BANK4               50      0       0      13        0.0%
BITSFR12             0      0       0      13        0.0%
SFR12                0      0       0      13        0.0%
BITBANK5            50      0       0      14        0.0%
BITSFR13             0      0       0      14        0.0%
SFR13                0      0       0      14        0.0%
BANK5               50      0       0      15        0.0%
BITSFR14             0      0       0      15        0.0%
SFR14                0      0       0      15        0.0%
BITBANK6            50      0       0      16        0.0%
BITSFR15             0      0       0      16        0.0%
SFR15                0      0       0      16        0.0%
BANK6               50      0       0      17        0.0%
BITSFR16             0      0       0      17        0.0%
SFR16                0      0       0      17        0.0%
BITBANK7            50      0       0      18        0.0%
BITSFR17             0      0       0      18        0.0%
SFR17                0      0       0      18        0.0%
BANK7               50      0       0      19        0.0%
BITSFR18             0      0       0      19        0.0%
SFR18                0      0       0      19        0.0%
BITSFR19             0      0       0      20        0.0%
SFR19                0      0       0      20        0.0%
ABS                  0      0      5F      20        0.0%
BITBANK8            50      0       0      21        0.0%
BITSFR20             0      0       0      21        0.0%
SFR20                0      0       0      21        0.0%
BANK8               50      0       0      22        0.0%
BITSFR21             0      0       0      22        0.0%
SFR21                0      0       0      22        0.0%
BITBANK9            50      0       0      23        0.0%
BITSFR22             0      0       0      23        0.0%
SFR22                0      0       0      23        0.0%
BANK9               50      0       0      24        0.0%
BITSFR23             0      0       0      24        0.0%
SFR23                0      0       0      24        0.0%
BITBANK10           50      0       0      25        0.0%
BITSFR24             0      0       0      25        0.0%
SFR24                0      0       0      25        0.0%
BANK10              50      0       0      26        0.0%
BITSFR25             0      0       0      26        0.0%
SFR25                0      0       0      26        0.0%
BITBANK11           50      0       0      27        0.0%
BITSFR26             0      0       0      27        0.0%
SFR26                0      0       0      27        0.0%
BANK11              50      0       0      28        0.0%
BITSFR27             0      0       0      28        0.0%
SFR27                0      0       0      28        0.0%
BITBANK12           30      0       0      29        0.0%
BITSFR28             0      0       0      29        0.0%
SFR28                0      0       0      29        0.0%
BANK12              30      0       0      30        0.0%
BITSFR29             0      0       0      30        0.0%
SFR29                0      0       0      30        0.0%
BITSFR30             0      0       0      31        0.0%
SFR30                0      0       0      31        0.0%
DATA                 0      0      5F      31        0.0%
BITSFR31             0      0       0      32        0.0%
SFR31                0      0       0      32        0.0%


Microchip Technology PIC Macro Assembler V2.00 build -1524193055 
Symbol Table                                                                                   Sun Jun 16 16:40:46 2019

                      __CFG_CP$OFF 0000                                 l92 0114  
                     ?_display_set 0070                        __CFG_LVP$ON 0000  
                              l358 029F                                _GIE 005F  
                              _RC4 0074                       __CFG_CPD$OFF 0000  
                              _ISR 0004                       ___awmod@sign 0026  
           __end_of_display_update 0195                       __CFG_BORV$LO 0000  
                              wreg 0009                       __CFG_IESO$ON 0000  
                     __CFG_FOSC$HS 0000         __size_of_capture_clrIntrpt 0003  
                   ??_led_SetState 0020               __end_of_data_getdata 02FD  
             capture_handdle@pdata 0079                               ?_ISR 0070  
                             l2121 01AD                               l2113 01A7  
                             l2123 01B9                               l2131 01CE  
                             l2109 01A0                               l2135 01D6  
                             l2127 01C5                               l2217 00F9  
                             l2091 025A                               l2683 023F  
                             _BRGH 0CF2                               _CREN 0CEC  
                             u1205 01E5                               u1405 01B0  
                             _LATA 010C                               _LATB 010D  
                             _LATC 010E                               u1425 01BF  
                             u1505 00F7                               u1435 01C6  
                             u1515 0112                               u1550 02BA  
                             _ENUM 0049                               _PEIE 005E  
                             _RCIE 048D                               _TMR0 0015  
                             _SPEN 0CEF                               _TXIE 048C  
                             _TXEN 0CF5                               _SYNC 0CF4  
                             _WPUA 020C                               _WPUB 020D  
                             _WPUC 020E                       __CFG_WRT$OFF 0000  
                    __CFG_FCMEN$ON 0000                               _Temp 0038  
                             _main 022C                               fsr0h 0005  
                             fsr1h 0007                               indf0 0000  
                             fsr0l 0004                               indf1 0001  
                             fsr1l 0006                               btemp 007E  
                    __CFG_BOREN$ON 0000                               start 001F  
                    __CFG_MCLRE$ON 0000                              ??_ISR 007E  
                 __end_of_IIC_Init 029A                      __CFG_PLLEN$ON 0000  
         __end_of_timer_Timer1Init 0280                              ?_main 0070  
                            _BRG16 0CFB                      __CFG_WDTE$OFF 0000  
                  __end_of___awmod 01DB                              _LATC3 0873  
                            _LATC4 0874                              _IOCAN 0392  
                            _IOCAP 0391                              _IOCBN 0395  
                            _IOCBP 0394                              _IOCCN 0398  
                            _IOCCP 0397                              i1l125 001D  
                            _RCREG 0199                              _TMR1H 0017  
                            _TMR1L 0016                              _TRISA 008C  
                            _TRISB 008D                              _TRISC 008E  
                            _WPUC3 1073                              _WPUC4 1074  
                            _RXSEL 08E9                              _TXREG 019A  
                            _TXSEL 08EA                    ?_display_update 0070  
                            _TX_en 0041               __size_of_bpc_Cnt2Qua 0001  
              _timer_IsTimer1Itrpt 02E7               __end_of_capture_init 02E1  
                            main@i 003A                              status 0003  
                            wtemp0 007E               ?_timer_IsTimer1Itrpt 0070  
                  __initialization 0021                       __end_of_main 0250  
             display_write_once@HL 002A               display_write_once@HR 0027  
             display_write_once@ML 0028               display_write_once@MR 0029  
                   __CFG_LPBOR$OFF 0000             capture_handdle@cnt_int 007A  
           capture_handdle@cnt_tmp 007C            __size_ofi1_data_getdata 0002  
                           ??_main 0036          __size_of_capture_IsIntrpt 0004  
                           ISR@cnt 0047                             _CCPR2H 0299  
                           _CCPR2L 0298                             i1l2147 026C  
                           i1l2245 006D                             i1l2255 008E  
                           i1l2265 00A7                             i1l2249 007E  
                           i1l2663 000F                             u135_20 02CF  
                           u152_25 005D                             u148_20 02C4  
                           _SPBRGH 019C                             _SPBRGL 019B  
                           _TRISC3 0473                             _TRISC4 0474  
                   __CFG_PWRTE$OFF 0000                   __end_of_bpc_proc 02FB  
            ??_timer_IsTimer1Itrpt 0070               __end_of_led_SetState 02BD  
                           _g_data 00A0                     __CFG_STVREN$ON 0000  
                        ??___awmod 0024         ??_display_control595_delay 0020  
                           _flg_rc 0040                   __end_of_init_env 0123  
                  ___awmod@divisor 0020                             _temp_h 0045  
                           _temp_l 0044                    ___awmod@counter 0025  
             __size_of_display_set 0008                   __end_of_segmcode 02B2  
            __size_of_data_getdata 0002            __end_of__initialization 0030  
                        ?_IIC_Init 0070                     __pcstackCOMMON 0070  
                     _data_getdata 02FB         __end_of_display_write_byte 0206  
       __end_of_display_write_once 022C                   led_SetState@isOn 0020  
            __size_of_capture_init 0008                     _OPTION_REGbits 0095  
            tmp_change@history_key 0048            capture_handdle@last_cnt 0036  
                       __pbssBANK0 0036                         __pbssBANK1 00A0  
                i1_capture_setEdge 0263           __size_of_capture_handdle 007B  
                       ??_IIC_Init 0020            __size_ofi1_led_SetState 000A  
                  __CFG_VCAPEN$OFF 0000                 ?i1_capture_setEdge 0070  
         __size_of_capture_setEdge 0013                         __pmaintext 022C  
              ??i1_capture_setEdge 0070                       _capture_init 02D9  
                       __pintentry 0004                     i1_data_getdata 02FD  
                 ??_display_update 002B                  ?_timer_Timer1Init 0070  
                          _ODCONC3 1473                            _ODCONC4 1474  
                 _capture_IsIntrpt 02EB                 ??_timer_Timer1Init 0020  
                        ?_bpc_proc 0070          __end_ofi1_capture_setEdge 0273  
              capture_setEdge@edge 0020                            _RX_data 0042  
                        ?_init_env 0070                            _TX_data 0043  
            __size_of_led_SetState 000B   __end_of_display_control595_delay 02A7  
           __end_ofi1_data_getdata 02FF                            ___awmod 0195  
                          __ptext1 02EF                            __ptext2 0273  
                          __ptext3 02B2                            __ptext4 00AF  
                          __ptext5 0280                            __ptext6 02D1  
                          __ptext7 02FB                            __ptext8 028D  
                    ??_bpc_Cnt2Qua 0070                            __ptext9 0123  
                     __size_of_ISR 001B                          _T1CONbits 0018  
                 ___awmod@dividend 0022                          _IOCCFbits 0399  
                       ??_bpc_proc 0070                          _IOCCPbits 0397  
                          main@cnt 0046                            clrloop0 02E2  
                     _led_SetState 02B2               end_of_initialization 0030  
                       ??_init_env 0021                  ??_capture_handdle 0071  
               i1led_SetState@isOn 0070                    ?i1_data_getdata 0070  
                ??_capture_setEdge 0020                         _timer_init 0280  
                        _PORTAbits 000C                          _PORTCbits 000E  
                        _TRISCbits 008E                __end_of_bpc_Cnt2Qua 0300  
       __size_ofi1_capture_setEdge 0010        __end_of_timer_IsTimer1Itrpt 02EB  
                   i1_led_SetState 02BD                        _CCP2CONbits 029A  
                __size_of_IIC_Init 000D                      ??_display_set 0020  
              start_initialization 0021              receive_decode@cnt_low 003E  
                      __end_of_ISR 001F                display_write_byte@i 0025  
__size_of_display_control595_delay 000D                 _display_write_byte 01DB  
           display_write_byte@data 0024                 _display_write_once 0206  
        ?_display_control595_delay 0070             __end_ofi1_led_SetState 02C7  
           tmp_change@key_time_cnt 003C                ?_display_write_byte 0070  
              ?_display_write_once 0027           __end_of_capture_IsIntrpt 02EF  
                      ?_timer_init 0070               ??_display_write_byte 0022  
             ??_display_write_once 002A                        _bpc_Cnt2Qua 02FF  
              __end_of_display_set 02D9                          ___latbits 0002  
                    __pcstackBANK0 0020                    ?i1_led_SetState 0070  
                __size_of_bpc_proc 0003          __size_of_timer_Timer1Init 000D  
                __size_of_init_env 0074                           ?___awmod 0020  
                _timer_Timer1Reset 02F2                  _timer_Timer1Start 02EF  
               ?_timer_Timer1Reset 0070                    _capture_handdle 0034  
               ?_timer_Timer1Start 0070                  _capture_IsNegEdge 02C7  
             _capture_handdle$1239 0077                           _IIC_Init 028D  
               ?_capture_IsNegEdge 0070                           _LATAbits 010C  
                         _LATBbits 010D                    _capture_setEdge 0250  
              __size_of_timer_init 000D                          clear_ram0 02E1  
                 ??i1_data_getdata 0070                           _PIE1bits 0091  
              ??_timer_Timer1Reset 0070                ??_timer_Timer1Start 0020  
                         _PIR1bits 0011                           _PIR2bits 0012  
              ??_capture_IsNegEdge 0070                        _display_set 02D1  
                         _WPUCbits 020E          __end_of_timer_Timer1Reset 02F5  
        __end_of_timer_Timer1Start 02F2          __end_of_capture_IsNegEdge 02D1  
          __size_of_display_update 0072                          init_env@i 0024  
                    ?_data_getdata 0070                   __size_of___awmod 0046  
          __end_of_capture_handdle 00AF                           _bpc_proc 02F8  
            i1capture_setEdge@edge 0070                           __ptext10 0206  
                         __ptext11 01DB                           __ptext20 02BD  
                         __ptext12 029A                           __ptext21 02FD  
                         __ptext13 0195                           __ptext22 0263  
                         __ptext14 02D9                           __ptext23 02C7  
                         __ptext15 0250                           __ptext24 02F5  
                         __ptext25 02EB                           __ptext17 02F2  
                         __ptext26 02F8                           __ptext18 02E7  
                         __ptext27 02FF                           __ptext19 0034  
          __end_of_capture_setEdge 0263                  _capture_clrIntrpt 02F5  
               ?_capture_clrIntrpt 0070      display_control595_delay@times 0021  
                 _timer_Timer1Init 0273                           _init_env 00AF  
                    __size_of_main 0024                           _segmcode 02A7  
              ??_capture_clrIntrpt 0070                      init_env@pdata 0023  
                ?_capture_IsIntrpt 0070       __size_of_timer_IsTimer1Itrpt 0004  
                   ??_data_getdata 0020                      ?_capture_init 0070  
               ??_capture_IsIntrpt 0070                           int$flags 007E  
                     ??_timer_init 0020                       ?_bpc_Cnt2Qua 0070  
                 ??i1_led_SetState 0070         __size_of_timer_Timer1Reset 0003  
                       _INTCONbits 000B         __size_of_timer_Timer1Start 0003  
        __end_of_capture_clrIntrpt 02F8         __size_of_capture_IsNegEdge 000A  
                         intlevel1 0000                  __CFG_CLKOUTEN$OFF 0000  
               __end_of_timer_init 028D                         _OSCCONbits 0099  
                   ??_capture_init 0021                    display_set@ison 0020  
                    __pstringtext1 02A7        __size_of_display_write_byte 002B  
      __size_of_display_write_once 0026                    display_update@i 003F  
         _display_control595_delay 029A                   ?_capture_handdle 0070  
                   _display_update 0123                      ?_led_SetState 0070  
                 ?_capture_setEdge 0070  
