

Microchip Technology PIC LITE Macro Assembler V2.00 build -1524193055 
                                                                                               Sun Jun 16 23:14:26 2019

Microchip Technology Omniscient Code Generator v2.00 (Free mode) build 20180527130849
     1                           	processor	16F1786
     2                           	opt	pw 120
     3                           	opt	lm
     4                           	psect	stringtext1,global,class=STRCODE,delta=2
     5                           	psect	cinit,global,class=CODE,merge=1,delta=2
     6                           	psect	bssCOMMON,global,class=COMMON,space=1,delta=1
     7                           	psect	bssBANK0,global,class=BANK0,space=1,delta=1
     8                           	psect	bssBANK1,global,class=BANK1,space=1,delta=1
     9                           	psect	clrtext,global,class=CODE,delta=2
    10                           	psect	cstackCOMMON,global,class=COMMON,space=1,delta=1
    11                           	psect	cstackBANK0,global,class=BANK0,space=1,delta=1
    12                           	psect	maintext,global,class=CODE,merge=1,split=1,delta=2
    13                           	psect	text1,local,class=CODE,merge=1,delta=2
    14                           	psect	text2,local,class=CODE,merge=1,delta=2
    15                           	psect	text3,local,class=CODE,merge=1,delta=2
    16                           	psect	text4,local,class=CODE,merge=1,delta=2
    17                           	psect	text5,local,class=CODE,merge=1,delta=2
    18                           	psect	text6,local,class=CODE,merge=1,delta=2
    19                           	psect	text7,local,class=CODE,merge=1,delta=2
    20                           	psect	text8,local,class=CODE,merge=1,delta=2
    21                           	psect	text9,local,class=CODE,merge=1,delta=2
    22                           	psect	text10,local,class=CODE,merge=1,delta=2
    23                           	psect	text11,local,class=CODE,merge=1,delta=2
    24                           	psect	text12,local,class=CODE,merge=1,delta=2
    25                           	psect	text13,local,class=CODE,merge=1,delta=2,group=1
    26                           	psect	intentry,global,class=CODE,delta=2
    27                           	psect	text15,local,class=CODE,merge=1,delta=2
    28                           	psect	text16,local,class=CODE,merge=1,delta=2
    29                           	psect	text17,local,class=CODE,merge=1,delta=2
    30                           	psect	text18,local,class=CODE,merge=1,delta=2
    31                           	psect	text19,local,class=CODE,merge=1,delta=2
    32                           	psect	text20,local,class=CODE,merge=1,delta=2
    33                           	psect	text21,local,class=CODE,merge=1,delta=2
    34                           	psect	text22,local,class=CODE,merge=1,delta=2,group=1
    35                           	psect	text23,local,class=CODE,merge=1,delta=2
    36                           	psect	text24,local,class=CODE,merge=1,delta=2
    37                           	dabs	1,0x7E,2
    38  0000                     
    39                           ; Version 2.00
    40                           ; Generated 27/05/2018 GMT
    41                           ; 
    42                           ; Copyright © 2018, Microchip Technology Inc. and its subsidiaries ("Microchip")
    43                           ; All rights reserved.
    44                           ; 
    45                           ; This software is developed by Microchip Technology Inc. and its subsidiaries ("Microch
      +                          ip").
    46                           ; 
    47                           ; Redistribution and use in source and binary forms, with or without modification, are
    48                           ; permitted provided that the following conditions are met:
    49                           ; 
    50                           ;     1. Redistributions of source code must retain the above copyright notice, this lis
      +                          t of
    51                           ;        conditions and the following disclaimer.
    52                           ; 
    53                           ;     2. Redistributions in binary form must reproduce the above copyright notice, this 
      +                          list
    54                           ;        of conditions and the following disclaimer in the documentation and/or other
    55                           ;        materials provided with the distribution.
    56                           ; 
    57                           ;     3. Microchip's name may not be used to endorse or promote products derived from th
      +                          is
    58                           ;        software without specific prior written permission.
    59                           ; 
    60                           ; THIS SOFTWARE IS PROVIDED BY MICROCHIP "AS IS" AND ANY EXPRESS OR IMPLIED WARRANTIES,
    61                           ; INCLUDING, BUT NOT LIMITED TO, THE IMPLIED WARRANTIES OF MERCHANTABILITY AND FITNESS F
      +                          OR
    62                           ; PURPOSE ARE DISCLAIMED.  IN NO EVENT SHALL MICROCHIP BE LIABLE FOR ANY DIRECT, INDIREC
      +                          T,
    63                           ; INCIDENTAL, SPECIAL, EXEMPLARY, OR CONSEQUENTIAL DAMAGES (INCLUDING BUT NOT LIMITED TO
    64                           ; PROCUREMENT OF SUBSTITUTE GOODS OR SERVICES; LOSS OF USE, DATA OR PROFITS; OR BUSINESS
    65                           ; INTERRUPTION) HOWSOEVER CAUSED AND ON ANY THEORY OF LIABILITY, WHETHER IN CONTRACT, ST
      +                          RICT
    66                           ; LIABILITY, OR TORT (INCLUDING NEGLIGENCE OR OTHERWISE) ARISING IN ANY WAY OUT OF THE U
      +                          SE OF
    67                           ; THIS SOFTWARE, EVEN IF ADVISED OF THE POSSIBILITY OF SUCH DAMAGE.
    68                           ; 
    69                           ; 
    70                           ; Code-generator required, PIC16F1786 Definitions
    71                           ; 
    72                           ; SFR Addresses
    73  0000                     	;# 
    74  0001                     	;# 
    75  0002                     	;# 
    76  0003                     	;# 
    77  0004                     	;# 
    78  0005                     	;# 
    79  0006                     	;# 
    80  0007                     	;# 
    81  0008                     	;# 
    82  0009                     	;# 
    83  000A                     	;# 
    84  000B                     	;# 
    85  000C                     	;# 
    86  000D                     	;# 
    87  000E                     	;# 
    88  0010                     	;# 
    89  0011                     	;# 
    90  0012                     	;# 
    91  0013                     	;# 
    92  0014                     	;# 
    93  0015                     	;# 
    94  0016                     	;# 
    95  0016                     	;# 
    96  0017                     	;# 
    97  0018                     	;# 
    98  0019                     	;# 
    99  001A                     	;# 
   100  001B                     	;# 
   101  001C                     	;# 
   102  008C                     	;# 
   103  008D                     	;# 
   104  008E                     	;# 
   105  0090                     	;# 
   106  0091                     	;# 
   107  0092                     	;# 
   108  0093                     	;# 
   109  0094                     	;# 
   110  0095                     	;# 
   111  0096                     	;# 
   112  0097                     	;# 
   113  0098                     	;# 
   114  0099                     	;# 
   115  009A                     	;# 
   116  009B                     	;# 
   117  009B                     	;# 
   118  009C                     	;# 
   119  009D                     	;# 
   120  009E                     	;# 
   121  009F                     	;# 
   122  010C                     	;# 
   123  010D                     	;# 
   124  010E                     	;# 
   125  0111                     	;# 
   126  0112                     	;# 
   127  0113                     	;# 
   128  0114                     	;# 
   129  0115                     	;# 
   130  0116                     	;# 
   131  0117                     	;# 
   132  0118                     	;# 
   133  0119                     	;# 
   134  011A                     	;# 
   135  011B                     	;# 
   136  011C                     	;# 
   137  011D                     	;# 
   138  011D                     	;# 
   139  011D                     	;# 
   140  011E                     	;# 
   141  011F                     	;# 
   142  018C                     	;# 
   143  018D                     	;# 
   144  0191                     	;# 
   145  0191                     	;# 
   146  0192                     	;# 
   147  0193                     	;# 
   148  0193                     	;# 
   149  0193                     	;# 
   150  0194                     	;# 
   151  0195                     	;# 
   152  0196                     	;# 
   153  0197                     	;# 
   154  0199                     	;# 
   155  0199                     	;# 
   156  0199                     	;# 
   157  019A                     	;# 
   158  019A                     	;# 
   159  019A                     	;# 
   160  019B                     	;# 
   161  019B                     	;# 
   162  019B                     	;# 
   163  019B                     	;# 
   164  019B                     	;# 
   165  019C                     	;# 
   166  019C                     	;# 
   167  019C                     	;# 
   168  019D                     	;# 
   169  019D                     	;# 
   170  019D                     	;# 
   171  019E                     	;# 
   172  019E                     	;# 
   173  019E                     	;# 
   174  019F                     	;# 
   175  019F                     	;# 
   176  019F                     	;# 
   177  019F                     	;# 
   178  019F                     	;# 
   179  020C                     	;# 
   180  020D                     	;# 
   181  020E                     	;# 
   182  0210                     	;# 
   183  0211                     	;# 
   184  0211                     	;# 
   185  0212                     	;# 
   186  0212                     	;# 
   187  0213                     	;# 
   188  0213                     	;# 
   189  0214                     	;# 
   190  0214                     	;# 
   191  0215                     	;# 
   192  0215                     	;# 
   193  0215                     	;# 
   194  0215                     	;# 
   195  0216                     	;# 
   196  0216                     	;# 
   197  0217                     	;# 
   198  0217                     	;# 
   199  028C                     	;# 
   200  028D                     	;# 
   201  028E                     	;# 
   202  0291                     	;# 
   203  0291                     	;# 
   204  0292                     	;# 
   205  0293                     	;# 
   206  0298                     	;# 
   207  0298                     	;# 
   208  0299                     	;# 
   209  029A                     	;# 
   210  030C                     	;# 
   211  030D                     	;# 
   212  030E                     	;# 
   213  0311                     	;# 
   214  0311                     	;# 
   215  0312                     	;# 
   216  0313                     	;# 
   217  038C                     	;# 
   218  038D                     	;# 
   219  038E                     	;# 
   220  0390                     	;# 
   221  0391                     	;# 
   222  0392                     	;# 
   223  0393                     	;# 
   224  0394                     	;# 
   225  0395                     	;# 
   226  0396                     	;# 
   227  0397                     	;# 
   228  0398                     	;# 
   229  0399                     	;# 
   230  039D                     	;# 
   231  039E                     	;# 
   232  039F                     	;# 
   233  0511                     	;# 
   234  0513                     	;# 
   235  051A                     	;# 
   236  0811                     	;# 
   237  0812                     	;# 
   238  0813                     	;# 
   239  0814                     	;# 
   240  0815                     	;# 
   241  0816                     	;# 
   242  0817                     	;# 
   243  0818                     	;# 
   244  0819                     	;# 
   245  081A                     	;# 
   246  081B                     	;# 
   247  081C                     	;# 
   248  081D                     	;# 
   249  081E                     	;# 
   250  081F                     	;# 
   251  0820                     	;# 
   252  0821                     	;# 
   253  0821                     	;# 
   254  0822                     	;# 
   255  0823                     	;# 
   256  0823                     	;# 
   257  0824                     	;# 
   258  0825                     	;# 
   259  0825                     	;# 
   260  0826                     	;# 
   261  0827                     	;# 
   262  0827                     	;# 
   263  0828                     	;# 
   264  0829                     	;# 
   265  082A                     	;# 
   266  082B                     	;# 
   267  082C                     	;# 
   268  082D                     	;# 
   269  082E                     	;# 
   270  082F                     	;# 
   271  0831                     	;# 
   272  0832                     	;# 
   273  0833                     	;# 
   274  0834                     	;# 
   275  0835                     	;# 
   276  0836                     	;# 
   277  0837                     	;# 
   278  0838                     	;# 
   279  0839                     	;# 
   280  083A                     	;# 
   281  083B                     	;# 
   282  083C                     	;# 
   283  083D                     	;# 
   284  083E                     	;# 
   285  083F                     	;# 
   286  0840                     	;# 
   287  0841                     	;# 
   288  0841                     	;# 
   289  0842                     	;# 
   290  0843                     	;# 
   291  0843                     	;# 
   292  0844                     	;# 
   293  0845                     	;# 
   294  0845                     	;# 
   295  0846                     	;# 
   296  0847                     	;# 
   297  0847                     	;# 
   298  0848                     	;# 
   299  0849                     	;# 
   300  084A                     	;# 
   301  084B                     	;# 
   302  084C                     	;# 
   303  084D                     	;# 
   304  084E                     	;# 
   305  084F                     	;# 
   306  0851                     	;# 
   307  0852                     	;# 
   308  0853                     	;# 
   309  0854                     	;# 
   310  0855                     	;# 
   311  0856                     	;# 
   312  0857                     	;# 
   313  0858                     	;# 
   314  0859                     	;# 
   315  085A                     	;# 
   316  085B                     	;# 
   317  085C                     	;# 
   318  085D                     	;# 
   319  085E                     	;# 
   320  085F                     	;# 
   321  0860                     	;# 
   322  0861                     	;# 
   323  0861                     	;# 
   324  0862                     	;# 
   325  0863                     	;# 
   326  0863                     	;# 
   327  0864                     	;# 
   328  0865                     	;# 
   329  0865                     	;# 
   330  0866                     	;# 
   331  0867                     	;# 
   332  0867                     	;# 
   333  0868                     	;# 
   334  0869                     	;# 
   335  086A                     	;# 
   336  086B                     	;# 
   337  086C                     	;# 
   338  086D                     	;# 
   339  086E                     	;# 
   340  086F                     	;# 
   341  0FE4                     	;# 
   342  0FE5                     	;# 
   343  0FE6                     	;# 
   344  0FE7                     	;# 
   345  0FE8                     	;# 
   346  0FE9                     	;# 
   347  0FEA                     	;# 
   348  0FEB                     	;# 
   349  0FED                     	;# 
   350  0FEE                     	;# 
   351  0FEF                     	;# 
   352  0000                     	;# 
   353  0001                     	;# 
   354  0002                     	;# 
   355  0003                     	;# 
   356  0004                     	;# 
   357  0005                     	;# 
   358  0006                     	;# 
   359  0007                     	;# 
   360  0008                     	;# 
   361  0009                     	;# 
   362  000A                     	;# 
   363  000B                     	;# 
   364  000C                     	;# 
   365  000D                     	;# 
   366  000E                     	;# 
   367  0010                     	;# 
   368  0011                     	;# 
   369  0012                     	;# 
   370  0013                     	;# 
   371  0014                     	;# 
   372  0015                     	;# 
   373  0016                     	;# 
   374  0016                     	;# 
   375  0017                     	;# 
   376  0018                     	;# 
   377  0019                     	;# 
   378  001A                     	;# 
   379  001B                     	;# 
   380  001C                     	;# 
   381  008C                     	;# 
   382  008D                     	;# 
   383  008E                     	;# 
   384  0090                     	;# 
   385  0091                     	;# 
   386  0092                     	;# 
   387  0093                     	;# 
   388  0094                     	;# 
   389  0095                     	;# 
   390  0096                     	;# 
   391  0097                     	;# 
   392  0098                     	;# 
   393  0099                     	;# 
   394  009A                     	;# 
   395  009B                     	;# 
   396  009B                     	;# 
   397  009C                     	;# 
   398  009D                     	;# 
   399  009E                     	;# 
   400  009F                     	;# 
   401  010C                     	;# 
   402  010D                     	;# 
   403  010E                     	;# 
   404  0111                     	;# 
   405  0112                     	;# 
   406  0113                     	;# 
   407  0114                     	;# 
   408  0115                     	;# 
   409  0116                     	;# 
   410  0117                     	;# 
   411  0118                     	;# 
   412  0119                     	;# 
   413  011A                     	;# 
   414  011B                     	;# 
   415  011C                     	;# 
   416  011D                     	;# 
   417  011D                     	;# 
   418  011D                     	;# 
   419  011E                     	;# 
   420  011F                     	;# 
   421  018C                     	;# 
   422  018D                     	;# 
   423  0191                     	;# 
   424  0191                     	;# 
   425  0192                     	;# 
   426  0193                     	;# 
   427  0193                     	;# 
   428  0193                     	;# 
   429  0194                     	;# 
   430  0195                     	;# 
   431  0196                     	;# 
   432  0197                     	;# 
   433  0199                     	;# 
   434  0199                     	;# 
   435  0199                     	;# 
   436  019A                     	;# 
   437  019A                     	;# 
   438  019A                     	;# 
   439  019B                     	;# 
   440  019B                     	;# 
   441  019B                     	;# 
   442  019B                     	;# 
   443  019B                     	;# 
   444  019C                     	;# 
   445  019C                     	;# 
   446  019C                     	;# 
   447  019D                     	;# 
   448  019D                     	;# 
   449  019D                     	;# 
   450  019E                     	;# 
   451  019E                     	;# 
   452  019E                     	;# 
   453  019F                     	;# 
   454  019F                     	;# 
   455  019F                     	;# 
   456  019F                     	;# 
   457  019F                     	;# 
   458  020C                     	;# 
   459  020D                     	;# 
   460  020E                     	;# 
   461  0210                     	;# 
   462  0211                     	;# 
   463  0211                     	;# 
   464  0212                     	;# 
   465  0212                     	;# 
   466  0213                     	;# 
   467  0213                     	;# 
   468  0214                     	;# 
   469  0214                     	;# 
   470  0215                     	;# 
   471  0215                     	;# 
   472  0215                     	;# 
   473  0215                     	;# 
   474  0216                     	;# 
   475  0216                     	;# 
   476  0217                     	;# 
   477  0217                     	;# 
   478  028C                     	;# 
   479  028D                     	;# 
   480  028E                     	;# 
   481  0291                     	;# 
   482  0291                     	;# 
   483  0292                     	;# 
   484  0293                     	;# 
   485  0298                     	;# 
   486  0298                     	;# 
   487  0299                     	;# 
   488  029A                     	;# 
   489  030C                     	;# 
   490  030D                     	;# 
   491  030E                     	;# 
   492  0311                     	;# 
   493  0311                     	;# 
   494  0312                     	;# 
   495  0313                     	;# 
   496  038C                     	;# 
   497  038D                     	;# 
   498  038E                     	;# 
   499  0390                     	;# 
   500  0391                     	;# 
   501  0392                     	;# 
   502  0393                     	;# 
   503  0394                     	;# 
   504  0395                     	;# 
   505  0396                     	;# 
   506  0397                     	;# 
   507  0398                     	;# 
   508  0399                     	;# 
   509  039D                     	;# 
   510  039E                     	;# 
   511  039F                     	;# 
   512  0511                     	;# 
   513  0513                     	;# 
   514  051A                     	;# 
   515  0811                     	;# 
   516  0812                     	;# 
   517  0813                     	;# 
   518  0814                     	;# 
   519  0815                     	;# 
   520  0816                     	;# 
   521  0817                     	;# 
   522  0818                     	;# 
   523  0819                     	;# 
   524  081A                     	;# 
   525  081B                     	;# 
   526  081C                     	;# 
   527  081D                     	;# 
   528  081E                     	;# 
   529  081F                     	;# 
   530  0820                     	;# 
   531  0821                     	;# 
   532  0821                     	;# 
   533  0822                     	;# 
   534  0823                     	;# 
   535  0823                     	;# 
   536  0824                     	;# 
   537  0825                     	;# 
   538  0825                     	;# 
   539  0826                     	;# 
   540  0827                     	;# 
   541  0827                     	;# 
   542  0828                     	;# 
   543  0829                     	;# 
   544  082A                     	;# 
   545  082B                     	;# 
   546  082C                     	;# 
   547  082D                     	;# 
   548  082E                     	;# 
   549  082F                     	;# 
   550  0831                     	;# 
   551  0832                     	;# 
   552  0833                     	;# 
   553  0834                     	;# 
   554  0835                     	;# 
   555  0836                     	;# 
   556  0837                     	;# 
   557  0838                     	;# 
   558  0839                     	;# 
   559  083A                     	;# 
   560  083B                     	;# 
   561  083C                     	;# 
   562  083D                     	;# 
   563  083E                     	;# 
   564  083F                     	;# 
   565  0840                     	;# 
   566  0841                     	;# 
   567  0841                     	;# 
   568  0842                     	;# 
   569  0843                     	;# 
   570  0843                     	;# 
   571  0844                     	;# 
   572  0845                     	;# 
   573  0845                     	;# 
   574  0846                     	;# 
   575  0847                     	;# 
   576  0847                     	;# 
   577  0848                     	;# 
   578  0849                     	;# 
   579  084A                     	;# 
   580  084B                     	;# 
   581  084C                     	;# 
   582  084D                     	;# 
   583  084E                     	;# 
   584  084F                     	;# 
   585  0851                     	;# 
   586  0852                     	;# 
   587  0853                     	;# 
   588  0854                     	;# 
   589  0855                     	;# 
   590  0856                     	;# 
   591  0857                     	;# 
   592  0858                     	;# 
   593  0859                     	;# 
   594  085A                     	;# 
   595  085B                     	;# 
   596  085C                     	;# 
   597  085D                     	;# 
   598  085E                     	;# 
   599  085F                     	;# 
   600  0860                     	;# 
   601  0861                     	;# 
   602  0861                     	;# 
   603  0862                     	;# 
   604  0863                     	;# 
   605  0863                     	;# 
   606  0864                     	;# 
   607  0865                     	;# 
   608  0865                     	;# 
   609  0866                     	;# 
   610  0867                     	;# 
   611  0867                     	;# 
   612  0868                     	;# 
   613  0869                     	;# 
   614  086A                     	;# 
   615  086B                     	;# 
   616  086C                     	;# 
   617  086D                     	;# 
   618  086E                     	;# 
   619  086F                     	;# 
   620  0FE4                     	;# 
   621  0FE5                     	;# 
   622  0FE6                     	;# 
   623  0FE7                     	;# 
   624  0FE8                     	;# 
   625  0FE9                     	;# 
   626  0FEA                     	;# 
   627  0FEB                     	;# 
   628  0FED                     	;# 
   629  0FEE                     	;# 
   630  0FEF                     	;# 
   631  0000                     	;# 
   632  0001                     	;# 
   633  0002                     	;# 
   634  0003                     	;# 
   635  0004                     	;# 
   636  0005                     	;# 
   637  0006                     	;# 
   638  0007                     	;# 
   639  0008                     	;# 
   640  0009                     	;# 
   641  000A                     	;# 
   642  000B                     	;# 
   643  000C                     	;# 
   644  000D                     	;# 
   645  000E                     	;# 
   646  0010                     	;# 
   647  0011                     	;# 
   648  0012                     	;# 
   649  0013                     	;# 
   650  0014                     	;# 
   651  0015                     	;# 
   652  0016                     	;# 
   653  0016                     	;# 
   654  0017                     	;# 
   655  0018                     	;# 
   656  0019                     	;# 
   657  001A                     	;# 
   658  001B                     	;# 
   659  001C                     	;# 
   660  008C                     	;# 
   661  008D                     	;# 
   662  008E                     	;# 
   663  0090                     	;# 
   664  0091                     	;# 
   665  0092                     	;# 
   666  0093                     	;# 
   667  0094                     	;# 
   668  0095                     	;# 
   669  0096                     	;# 
   670  0097                     	;# 
   671  0098                     	;# 
   672  0099                     	;# 
   673  009A                     	;# 
   674  009B                     	;# 
   675  009B                     	;# 
   676  009C                     	;# 
   677  009D                     	;# 
   678  009E                     	;# 
   679  009F                     	;# 
   680  010C                     	;# 
   681  010D                     	;# 
   682  010E                     	;# 
   683  0111                     	;# 
   684  0112                     	;# 
   685  0113                     	;# 
   686  0114                     	;# 
   687  0115                     	;# 
   688  0116                     	;# 
   689  0117                     	;# 
   690  0118                     	;# 
   691  0119                     	;# 
   692  011A                     	;# 
   693  011B                     	;# 
   694  011C                     	;# 
   695  011D                     	;# 
   696  011D                     	;# 
   697  011D                     	;# 
   698  011E                     	;# 
   699  011F                     	;# 
   700  018C                     	;# 
   701  018D                     	;# 
   702  0191                     	;# 
   703  0191                     	;# 
   704  0192                     	;# 
   705  0193                     	;# 
   706  0193                     	;# 
   707  0193                     	;# 
   708  0194                     	;# 
   709  0195                     	;# 
   710  0196                     	;# 
   711  0197                     	;# 
   712  0199                     	;# 
   713  0199                     	;# 
   714  0199                     	;# 
   715  019A                     	;# 
   716  019A                     	;# 
   717  019A                     	;# 
   718  019B                     	;# 
   719  019B                     	;# 
   720  019B                     	;# 
   721  019B                     	;# 
   722  019B                     	;# 
   723  019C                     	;# 
   724  019C                     	;# 
   725  019C                     	;# 
   726  019D                     	;# 
   727  019D                     	;# 
   728  019D                     	;# 
   729  019E                     	;# 
   730  019E                     	;# 
   731  019E                     	;# 
   732  019F                     	;# 
   733  019F                     	;# 
   734  019F                     	;# 
   735  019F                     	;# 
   736  019F                     	;# 
   737  020C                     	;# 
   738  020D                     	;# 
   739  020E                     	;# 
   740  0210                     	;# 
   741  0211                     	;# 
   742  0211                     	;# 
   743  0212                     	;# 
   744  0212                     	;# 
   745  0213                     	;# 
   746  0213                     	;# 
   747  0214                     	;# 
   748  0214                     	;# 
   749  0215                     	;# 
   750  0215                     	;# 
   751  0215                     	;# 
   752  0215                     	;# 
   753  0216                     	;# 
   754  0216                     	;# 
   755  0217                     	;# 
   756  0217                     	;# 
   757  028C                     	;# 
   758  028D                     	;# 
   759  028E                     	;# 
   760  0291                     	;# 
   761  0291                     	;# 
   762  0292                     	;# 
   763  0293                     	;# 
   764  0298                     	;# 
   765  0298                     	;# 
   766  0299                     	;# 
   767  029A                     	;# 
   768  030C                     	;# 
   769  030D                     	;# 
   770  030E                     	;# 
   771  0311                     	;# 
   772  0311                     	;# 
   773  0312                     	;# 
   774  0313                     	;# 
   775  038C                     	;# 
   776  038D                     	;# 
   777  038E                     	;# 
   778  0390                     	;# 
   779  0391                     	;# 
   780  0392                     	;# 
   781  0393                     	;# 
   782  0394                     	;# 
   783  0395                     	;# 
   784  0396                     	;# 
   785  0397                     	;# 
   786  0398                     	;# 
   787  0399                     	;# 
   788  039D                     	;# 
   789  039E                     	;# 
   790  039F                     	;# 
   791  0511                     	;# 
   792  0513                     	;# 
   793  051A                     	;# 
   794  0811                     	;# 
   795  0812                     	;# 
   796  0813                     	;# 
   797  0814                     	;# 
   798  0815                     	;# 
   799  0816                     	;# 
   800  0817                     	;# 
   801  0818                     	;# 
   802  0819                     	;# 
   803  081A                     	;# 
   804  081B                     	;# 
   805  081C                     	;# 
   806  081D                     	;# 
   807  081E                     	;# 
   808  081F                     	;# 
   809  0820                     	;# 
   810  0821                     	;# 
   811  0821                     	;# 
   812  0822                     	;# 
   813  0823                     	;# 
   814  0823                     	;# 
   815  0824                     	;# 
   816  0825                     	;# 
   817  0825                     	;# 
   818  0826                     	;# 
   819  0827                     	;# 
   820  0827                     	;# 
   821  0828                     	;# 
   822  0829                     	;# 
   823  082A                     	;# 
   824  082B                     	;# 
   825  082C                     	;# 
   826  082D                     	;# 
   827  082E                     	;# 
   828  082F                     	;# 
   829  0831                     	;# 
   830  0832                     	;# 
   831  0833                     	;# 
   832  0834                     	;# 
   833  0835                     	;# 
   834  0836                     	;# 
   835  0837                     	;# 
   836  0838                     	;# 
   837  0839                     	;# 
   838  083A                     	;# 
   839  083B                     	;# 
   840  083C                     	;# 
   841  083D                     	;# 
   842  083E                     	;# 
   843  083F                     	;# 
   844  0840                     	;# 
   845  0841                     	;# 
   846  0841                     	;# 
   847  0842                     	;# 
   848  0843                     	;# 
   849  0843                     	;# 
   850  0844                     	;# 
   851  0845                     	;# 
   852  0845                     	;# 
   853  0846                     	;# 
   854  0847                     	;# 
   855  0847                     	;# 
   856  0848                     	;# 
   857  0849                     	;# 
   858  084A                     	;# 
   859  084B                     	;# 
   860  084C                     	;# 
   861  084D                     	;# 
   862  084E                     	;# 
   863  084F                     	;# 
   864  0851                     	;# 
   865  0852                     	;# 
   866  0853                     	;# 
   867  0854                     	;# 
   868  0855                     	;# 
   869  0856                     	;# 
   870  0857                     	;# 
   871  0858                     	;# 
   872  0859                     	;# 
   873  085A                     	;# 
   874  085B                     	;# 
   875  085C                     	;# 
   876  085D                     	;# 
   877  085E                     	;# 
   878  085F                     	;# 
   879  0860                     	;# 
   880  0861                     	;# 
   881  0861                     	;# 
   882  0862                     	;# 
   883  0863                     	;# 
   884  0863                     	;# 
   885  0864                     	;# 
   886  0865                     	;# 
   887  0865                     	;# 
   888  0866                     	;# 
   889  0867                     	;# 
   890  0867                     	;# 
   891  0868                     	;# 
   892  0869                     	;# 
   893  086A                     	;# 
   894  086B                     	;# 
   895  086C                     	;# 
   896  086D                     	;# 
   897  086E                     	;# 
   898  086F                     	;# 
   899  0FE4                     	;# 
   900  0FE5                     	;# 
   901  0FE6                     	;# 
   902  0FE7                     	;# 
   903  0FE8                     	;# 
   904  0FE9                     	;# 
   905  0FEA                     	;# 
   906  0FEB                     	;# 
   907  0FED                     	;# 
   908  0FEE                     	;# 
   909  0FEF                     	;# 
   910  0000                     	;# 
   911  0001                     	;# 
   912  0002                     	;# 
   913  0003                     	;# 
   914  0004                     	;# 
   915  0005                     	;# 
   916  0006                     	;# 
   917  0007                     	;# 
   918  0008                     	;# 
   919  0009                     	;# 
   920  000A                     	;# 
   921  000B                     	;# 
   922  000C                     	;# 
   923  000D                     	;# 
   924  000E                     	;# 
   925  0010                     	;# 
   926  0011                     	;# 
   927  0012                     	;# 
   928  0013                     	;# 
   929  0014                     	;# 
   930  0015                     	;# 
   931  0016                     	;# 
   932  0016                     	;# 
   933  0017                     	;# 
   934  0018                     	;# 
   935  0019                     	;# 
   936  001A                     	;# 
   937  001B                     	;# 
   938  001C                     	;# 
   939  008C                     	;# 
   940  008D                     	;# 
   941  008E                     	;# 
   942  0090                     	;# 
   943  0091                     	;# 
   944  0092                     	;# 
   945  0093                     	;# 
   946  0094                     	;# 
   947  0095                     	;# 
   948  0096                     	;# 
   949  0097                     	;# 
   950  0098                     	;# 
   951  0099                     	;# 
   952  009A                     	;# 
   953  009B                     	;# 
   954  009B                     	;# 
   955  009C                     	;# 
   956  009D                     	;# 
   957  009E                     	;# 
   958  009F                     	;# 
   959  010C                     	;# 
   960  010D                     	;# 
   961  010E                     	;# 
   962  0111                     	;# 
   963  0112                     	;# 
   964  0113                     	;# 
   965  0114                     	;# 
   966  0115                     	;# 
   967  0116                     	;# 
   968  0117                     	;# 
   969  0118                     	;# 
   970  0119                     	;# 
   971  011A                     	;# 
   972  011B                     	;# 
   973  011C                     	;# 
   974  011D                     	;# 
   975  011D                     	;# 
   976  011D                     	;# 
   977  011E                     	;# 
   978  011F                     	;# 
   979  018C                     	;# 
   980  018D                     	;# 
   981  0191                     	;# 
   982  0191                     	;# 
   983  0192                     	;# 
   984  0193                     	;# 
   985  0193                     	;# 
   986  0193                     	;# 
   987  0194                     	;# 
   988  0195                     	;# 
   989  0196                     	;# 
   990  0197                     	;# 
   991  0199                     	;# 
   992  0199                     	;# 
   993  0199                     	;# 
   994  019A                     	;# 
   995  019A                     	;# 
   996  019A                     	;# 
   997  019B                     	;# 
   998  019B                     	;# 
   999  019B                     	;# 
  1000  019B                     	;# 
  1001  019B                     	;# 
  1002  019C                     	;# 
  1003  019C                     	;# 
  1004  019C                     	;# 
  1005  019D                     	;# 
  1006  019D                     	;# 
  1007  019D                     	;# 
  1008  019E                     	;# 
  1009  019E                     	;# 
  1010  019E                     	;# 
  1011  019F                     	;# 
  1012  019F                     	;# 
  1013  019F                     	;# 
  1014  019F                     	;# 
  1015  019F                     	;# 
  1016  020C                     	;# 
  1017  020D                     	;# 
  1018  020E                     	;# 
  1019  0210                     	;# 
  1020  0211                     	;# 
  1021  0211                     	;# 
  1022  0212                     	;# 
  1023  0212                     	;# 
  1024  0213                     	;# 
  1025  0213                     	;# 
  1026  0214                     	;# 
  1027  0214                     	;# 
  1028  0215                     	;# 
  1029  0215                     	;# 
  1030  0215                     	;# 
  1031  0215                     	;# 
  1032  0216                     	;# 
  1033  0216                     	;# 
  1034  0217                     	;# 
  1035  0217                     	;# 
  1036  028C                     	;# 
  1037  028D                     	;# 
  1038  028E                     	;# 
  1039  0291                     	;# 
  1040  0291                     	;# 
  1041  0292                     	;# 
  1042  0293                     	;# 
  1043  0298                     	;# 
  1044  0298                     	;# 
  1045  0299                     	;# 
  1046  029A                     	;# 
  1047  030C                     	;# 
  1048  030D                     	;# 
  1049  030E                     	;# 
  1050  0311                     	;# 
  1051  0311                     	;# 
  1052  0312                     	;# 
  1053  0313                     	;# 
  1054  038C                     	;# 
  1055  038D                     	;# 
  1056  038E                     	;# 
  1057  0390                     	;# 
  1058  0391                     	;# 
  1059  0392                     	;# 
  1060  0393                     	;# 
  1061  0394                     	;# 
  1062  0395                     	;# 
  1063  0396                     	;# 
  1064  0397                     	;# 
  1065  0398                     	;# 
  1066  0399                     	;# 
  1067  039D                     	;# 
  1068  039E                     	;# 
  1069  039F                     	;# 
  1070  0511                     	;# 
  1071  0513                     	;# 
  1072  051A                     	;# 
  1073  0811                     	;# 
  1074  0812                     	;# 
  1075  0813                     	;# 
  1076  0814                     	;# 
  1077  0815                     	;# 
  1078  0816                     	;# 
  1079  0817                     	;# 
  1080  0818                     	;# 
  1081  0819                     	;# 
  1082  081A                     	;# 
  1083  081B                     	;# 
  1084  081C                     	;# 
  1085  081D                     	;# 
  1086  081E                     	;# 
  1087  081F                     	;# 
  1088  0820                     	;# 
  1089  0821                     	;# 
  1090  0821                     	;# 
  1091  0822                     	;# 
  1092  0823                     	;# 
  1093  0823                     	;# 
  1094  0824                     	;# 
  1095  0825                     	;# 
  1096  0825                     	;# 
  1097  0826                     	;# 
  1098  0827                     	;# 
  1099  0827                     	;# 
  1100  0828                     	;# 
  1101  0829                     	;# 
  1102  082A                     	;# 
  1103  082B                     	;# 
  1104  082C                     	;# 
  1105  082D                     	;# 
  1106  082E                     	;# 
  1107  082F                     	;# 
  1108  0831                     	;# 
  1109  0832                     	;# 
  1110  0833                     	;# 
  1111  0834                     	;# 
  1112  0835                     	;# 
  1113  0836                     	;# 
  1114  0837                     	;# 
  1115  0838                     	;# 
  1116  0839                     	;# 
  1117  083A                     	;# 
  1118  083B                     	;# 
  1119  083C                     	;# 
  1120  083D                     	;# 
  1121  083E                     	;# 
  1122  083F                     	;# 
  1123  0840                     	;# 
  1124  0841                     	;# 
  1125  0841                     	;# 
  1126  0842                     	;# 
  1127  0843                     	;# 
  1128  0843                     	;# 
  1129  0844                     	;# 
  1130  0845                     	;# 
  1131  0845                     	;# 
  1132  0846                     	;# 
  1133  0847                     	;# 
  1134  0847                     	;# 
  1135  0848                     	;# 
  1136  0849                     	;# 
  1137  084A                     	;# 
  1138  084B                     	;# 
  1139  084C                     	;# 
  1140  084D                     	;# 
  1141  084E                     	;# 
  1142  084F                     	;# 
  1143  0851                     	;# 
  1144  0852                     	;# 
  1145  0853                     	;# 
  1146  0854                     	;# 
  1147  0855                     	;# 
  1148  0856                     	;# 
  1149  0857                     	;# 
  1150  0858                     	;# 
  1151  0859                     	;# 
  1152  085A                     	;# 
  1153  085B                     	;# 
  1154  085C                     	;# 
  1155  085D                     	;# 
  1156  085E                     	;# 
  1157  085F                     	;# 
  1158  0860                     	;# 
  1159  0861                     	;# 
  1160  0861                     	;# 
  1161  0862                     	;# 
  1162  0863                     	;# 
  1163  0863                     	;# 
  1164  0864                     	;# 
  1165  0865                     	;# 
  1166  0865                     	;# 
  1167  0866                     	;# 
  1168  0867                     	;# 
  1169  0867                     	;# 
  1170  0868                     	;# 
  1171  0869                     	;# 
  1172  086A                     	;# 
  1173  086B                     	;# 
  1174  086C                     	;# 
  1175  086D                     	;# 
  1176  086E                     	;# 
  1177  086F                     	;# 
  1178  0FE4                     	;# 
  1179  0FE5                     	;# 
  1180  0FE6                     	;# 
  1181  0FE7                     	;# 
  1182  0FE8                     	;# 
  1183  0FE9                     	;# 
  1184  0FEA                     	;# 
  1185  0FEB                     	;# 
  1186  0FED                     	;# 
  1187  0FEE                     	;# 
  1188  0FEF                     	;# 
  1189  0000                     	;# 
  1190  0001                     	;# 
  1191  0002                     	;# 
  1192  0003                     	;# 
  1193  0004                     	;# 
  1194  0005                     	;# 
  1195  0006                     	;# 
  1196  0007                     	;# 
  1197  0008                     	;# 
  1198  0009                     	;# 
  1199  000A                     	;# 
  1200  000B                     	;# 
  1201  000C                     	;# 
  1202  000D                     	;# 
  1203  000E                     	;# 
  1204  0010                     	;# 
  1205  0011                     	;# 
  1206  0012                     	;# 
  1207  0013                     	;# 
  1208  0014                     	;# 
  1209  0015                     	;# 
  1210  0016                     	;# 
  1211  0016                     	;# 
  1212  0017                     	;# 
  1213  0018                     	;# 
  1214  0019                     	;# 
  1215  001A                     	;# 
  1216  001B                     	;# 
  1217  001C                     	;# 
  1218  008C                     	;# 
  1219  008D                     	;# 
  1220  008E                     	;# 
  1221  0090                     	;# 
  1222  0091                     	;# 
  1223  0092                     	;# 
  1224  0093                     	;# 
  1225  0094                     	;# 
  1226  0095                     	;# 
  1227  0096                     	;# 
  1228  0097                     	;# 
  1229  0098                     	;# 
  1230  0099                     	;# 
  1231  009A                     	;# 
  1232  009B                     	;# 
  1233  009B                     	;# 
  1234  009C                     	;# 
  1235  009D                     	;# 
  1236  009E                     	;# 
  1237  009F                     	;# 
  1238  010C                     	;# 
  1239  010D                     	;# 
  1240  010E                     	;# 
  1241  0111                     	;# 
  1242  0112                     	;# 
  1243  0113                     	;# 
  1244  0114                     	;# 
  1245  0115                     	;# 
  1246  0116                     	;# 
  1247  0117                     	;# 
  1248  0118                     	;# 
  1249  0119                     	;# 
  1250  011A                     	;# 
  1251  011B                     	;# 
  1252  011C                     	;# 
  1253  011D                     	;# 
  1254  011D                     	;# 
  1255  011D                     	;# 
  1256  011E                     	;# 
  1257  011F                     	;# 
  1258  018C                     	;# 
  1259  018D                     	;# 
  1260  0191                     	;# 
  1261  0191                     	;# 
  1262  0192                     	;# 
  1263  0193                     	;# 
  1264  0193                     	;# 
  1265  0193                     	;# 
  1266  0194                     	;# 
  1267  0195                     	;# 
  1268  0196                     	;# 
  1269  0197                     	;# 
  1270  0199                     	;# 
  1271  0199                     	;# 
  1272  0199                     	;# 
  1273  019A                     	;# 
  1274  019A                     	;# 
  1275  019A                     	;# 
  1276  019B                     	;# 
  1277  019B                     	;# 
  1278  019B                     	;# 
  1279  019B                     	;# 
  1280  019B                     	;# 
  1281  019C                     	;# 
  1282  019C                     	;# 
  1283  019C                     	;# 
  1284  019D                     	;# 
  1285  019D                     	;# 
  1286  019D                     	;# 
  1287  019E                     	;# 
  1288  019E                     	;# 
  1289  019E                     	;# 
  1290  019F                     	;# 
  1291  019F                     	;# 
  1292  019F                     	;# 
  1293  019F                     	;# 
  1294  019F                     	;# 
  1295  020C                     	;# 
  1296  020D                     	;# 
  1297  020E                     	;# 
  1298  0210                     	;# 
  1299  0211                     	;# 
  1300  0211                     	;# 
  1301  0212                     	;# 
  1302  0212                     	;# 
  1303  0213                     	;# 
  1304  0213                     	;# 
  1305  0214                     	;# 
  1306  0214                     	;# 
  1307  0215                     	;# 
  1308  0215                     	;# 
  1309  0215                     	;# 
  1310  0215                     	;# 
  1311  0216                     	;# 
  1312  0216                     	;# 
  1313  0217                     	;# 
  1314  0217                     	;# 
  1315  028C                     	;# 
  1316  028D                     	;# 
  1317  028E                     	;# 
  1318  0291                     	;# 
  1319  0291                     	;# 
  1320  0292                     	;# 
  1321  0293                     	;# 
  1322  0298                     	;# 
  1323  0298                     	;# 
  1324  0299                     	;# 
  1325  029A                     	;# 
  1326  030C                     	;# 
  1327  030D                     	;# 
  1328  030E                     	;# 
  1329  0311                     	;# 
  1330  0311                     	;# 
  1331  0312                     	;# 
  1332  0313                     	;# 
  1333  038C                     	;# 
  1334  038D                     	;# 
  1335  038E                     	;# 
  1336  0390                     	;# 
  1337  0391                     	;# 
  1338  0392                     	;# 
  1339  0393                     	;# 
  1340  0394                     	;# 
  1341  0395                     	;# 
  1342  0396                     	;# 
  1343  0397                     	;# 
  1344  0398                     	;# 
  1345  0399                     	;# 
  1346  039D                     	;# 
  1347  039E                     	;# 
  1348  039F                     	;# 
  1349  0511                     	;# 
  1350  0513                     	;# 
  1351  051A                     	;# 
  1352  0811                     	;# 
  1353  0812                     	;# 
  1354  0813                     	;# 
  1355  0814                     	;# 
  1356  0815                     	;# 
  1357  0816                     	;# 
  1358  0817                     	;# 
  1359  0818                     	;# 
  1360  0819                     	;# 
  1361  081A                     	;# 
  1362  081B                     	;# 
  1363  081C                     	;# 
  1364  081D                     	;# 
  1365  081E                     	;# 
  1366  081F                     	;# 
  1367  0820                     	;# 
  1368  0821                     	;# 
  1369  0821                     	;# 
  1370  0822                     	;# 
  1371  0823                     	;# 
  1372  0823                     	;# 
  1373  0824                     	;# 
  1374  0825                     	;# 
  1375  0825                     	;# 
  1376  0826                     	;# 
  1377  0827                     	;# 
  1378  0827                     	;# 
  1379  0828                     	;# 
  1380  0829                     	;# 
  1381  082A                     	;# 
  1382  082B                     	;# 
  1383  082C                     	;# 
  1384  082D                     	;# 
  1385  082E                     	;# 
  1386  082F                     	;# 
  1387  0831                     	;# 
  1388  0832                     	;# 
  1389  0833                     	;# 
  1390  0834                     	;# 
  1391  0835                     	;# 
  1392  0836                     	;# 
  1393  0837                     	;# 
  1394  0838                     	;# 
  1395  0839                     	;# 
  1396  083A                     	;# 
  1397  083B                     	;# 
  1398  083C                     	;# 
  1399  083D                     	;# 
  1400  083E                     	;# 
  1401  083F                     	;# 
  1402  0840                     	;# 
  1403  0841                     	;# 
  1404  0841                     	;# 
  1405  0842                     	;# 
  1406  0843                     	;# 
  1407  0843                     	;# 
  1408  0844                     	;# 
  1409  0845                     	;# 
  1410  0845                     	;# 
  1411  0846                     	;# 
  1412  0847                     	;# 
  1413  0847                     	;# 
  1414  0848                     	;# 
  1415  0849                     	;# 
  1416  084A                     	;# 
  1417  084B                     	;# 
  1418  084C                     	;# 
  1419  084D                     	;# 
  1420  084E                     	;# 
  1421  084F                     	;# 
  1422  0851                     	;# 
  1423  0852                     	;# 
  1424  0853                     	;# 
  1425  0854                     	;# 
  1426  0855                     	;# 
  1427  0856                     	;# 
  1428  0857                     	;# 
  1429  0858                     	;# 
  1430  0859                     	;# 
  1431  085A                     	;# 
  1432  085B                     	;# 
  1433  085C                     	;# 
  1434  085D                     	;# 
  1435  085E                     	;# 
  1436  085F                     	;# 
  1437  0860                     	;# 
  1438  0861                     	;# 
  1439  0861                     	;# 
  1440  0862                     	;# 
  1441  0863                     	;# 
  1442  0863                     	;# 
  1443  0864                     	;# 
  1444  0865                     	;# 
  1445  0865                     	;# 
  1446  0866                     	;# 
  1447  0867                     	;# 
  1448  0867                     	;# 
  1449  0868                     	;# 
  1450  0869                     	;# 
  1451  086A                     	;# 
  1452  086B                     	;# 
  1453  086C                     	;# 
  1454  086D                     	;# 
  1455  086E                     	;# 
  1456  086F                     	;# 
  1457  0FE4                     	;# 
  1458  0FE5                     	;# 
  1459  0FE6                     	;# 
  1460  0FE7                     	;# 
  1461  0FE8                     	;# 
  1462  0FE9                     	;# 
  1463  0FEA                     	;# 
  1464  0FEB                     	;# 
  1465  0FED                     	;# 
  1466  0FEE                     	;# 
  1467  0FEF                     	;# 
  1468  0000                     	;# 
  1469  0001                     	;# 
  1470  0002                     	;# 
  1471  0003                     	;# 
  1472  0004                     	;# 
  1473  0005                     	;# 
  1474  0006                     	;# 
  1475  0007                     	;# 
  1476  0008                     	;# 
  1477  0009                     	;# 
  1478  000A                     	;# 
  1479  000B                     	;# 
  1480  000C                     	;# 
  1481  000D                     	;# 
  1482  000E                     	;# 
  1483  0010                     	;# 
  1484  0011                     	;# 
  1485  0012                     	;# 
  1486  0013                     	;# 
  1487  0014                     	;# 
  1488  0015                     	;# 
  1489  0016                     	;# 
  1490  0016                     	;# 
  1491  0017                     	;# 
  1492  0018                     	;# 
  1493  0019                     	;# 
  1494  001A                     	;# 
  1495  001B                     	;# 
  1496  001C                     	;# 
  1497  008C                     	;# 
  1498  008D                     	;# 
  1499  008E                     	;# 
  1500  0090                     	;# 
  1501  0091                     	;# 
  1502  0092                     	;# 
  1503  0093                     	;# 
  1504  0094                     	;# 
  1505  0095                     	;# 
  1506  0096                     	;# 
  1507  0097                     	;# 
  1508  0098                     	;# 
  1509  0099                     	;# 
  1510  009A                     	;# 
  1511  009B                     	;# 
  1512  009B                     	;# 
  1513  009C                     	;# 
  1514  009D                     	;# 
  1515  009E                     	;# 
  1516  009F                     	;# 
  1517  010C                     	;# 
  1518  010D                     	;# 
  1519  010E                     	;# 
  1520  0111                     	;# 
  1521  0112                     	;# 
  1522  0113                     	;# 
  1523  0114                     	;# 
  1524  0115                     	;# 
  1525  0116                     	;# 
  1526  0117                     	;# 
  1527  0118                     	;# 
  1528  0119                     	;# 
  1529  011A                     	;# 
  1530  011B                     	;# 
  1531  011C                     	;# 
  1532  011D                     	;# 
  1533  011D                     	;# 
  1534  011D                     	;# 
  1535  011E                     	;# 
  1536  011F                     	;# 
  1537  018C                     	;# 
  1538  018D                     	;# 
  1539  0191                     	;# 
  1540  0191                     	;# 
  1541  0192                     	;# 
  1542  0193                     	;# 
  1543  0193                     	;# 
  1544  0193                     	;# 
  1545  0194                     	;# 
  1546  0195                     	;# 
  1547  0196                     	;# 
  1548  0197                     	;# 
  1549  0199                     	;# 
  1550  0199                     	;# 
  1551  0199                     	;# 
  1552  019A                     	;# 
  1553  019A                     	;# 
  1554  019A                     	;# 
  1555  019B                     	;# 
  1556  019B                     	;# 
  1557  019B                     	;# 
  1558  019B                     	;# 
  1559  019B                     	;# 
  1560  019C                     	;# 
  1561  019C                     	;# 
  1562  019C                     	;# 
  1563  019D                     	;# 
  1564  019D                     	;# 
  1565  019D                     	;# 
  1566  019E                     	;# 
  1567  019E                     	;# 
  1568  019E                     	;# 
  1569  019F                     	;# 
  1570  019F                     	;# 
  1571  019F                     	;# 
  1572  019F                     	;# 
  1573  019F                     	;# 
  1574  020C                     	;# 
  1575  020D                     	;# 
  1576  020E                     	;# 
  1577  0210                     	;# 
  1578  0211                     	;# 
  1579  0211                     	;# 
  1580  0212                     	;# 
  1581  0212                     	;# 
  1582  0213                     	;# 
  1583  0213                     	;# 
  1584  0214                     	;# 
  1585  0214                     	;# 
  1586  0215                     	;# 
  1587  0215                     	;# 
  1588  0215                     	;# 
  1589  0215                     	;# 
  1590  0216                     	;# 
  1591  0216                     	;# 
  1592  0217                     	;# 
  1593  0217                     	;# 
  1594  028C                     	;# 
  1595  028D                     	;# 
  1596  028E                     	;# 
  1597  0291                     	;# 
  1598  0291                     	;# 
  1599  0292                     	;# 
  1600  0293                     	;# 
  1601  0298                     	;# 
  1602  0298                     	;# 
  1603  0299                     	;# 
  1604  029A                     	;# 
  1605  030C                     	;# 
  1606  030D                     	;# 
  1607  030E                     	;# 
  1608  0311                     	;# 
  1609  0311                     	;# 
  1610  0312                     	;# 
  1611  0313                     	;# 
  1612  038C                     	;# 
  1613  038D                     	;# 
  1614  038E                     	;# 
  1615  0390                     	;# 
  1616  0391                     	;# 
  1617  0392                     	;# 
  1618  0393                     	;# 
  1619  0394                     	;# 
  1620  0395                     	;# 
  1621  0396                     	;# 
  1622  0397                     	;# 
  1623  0398                     	;# 
  1624  0399                     	;# 
  1625  039D                     	;# 
  1626  039E                     	;# 
  1627  039F                     	;# 
  1628  0511                     	;# 
  1629  0513                     	;# 
  1630  051A                     	;# 
  1631  0811                     	;# 
  1632  0812                     	;# 
  1633  0813                     	;# 
  1634  0814                     	;# 
  1635  0815                     	;# 
  1636  0816                     	;# 
  1637  0817                     	;# 
  1638  0818                     	;# 
  1639  0819                     	;# 
  1640  081A                     	;# 
  1641  081B                     	;# 
  1642  081C                     	;# 
  1643  081D                     	;# 
  1644  081E                     	;# 
  1645  081F                     	;# 
  1646  0820                     	;# 
  1647  0821                     	;# 
  1648  0821                     	;# 
  1649  0822                     	;# 
  1650  0823                     	;# 
  1651  0823                     	;# 
  1652  0824                     	;# 
  1653  0825                     	;# 
  1654  0825                     	;# 
  1655  0826                     	;# 
  1656  0827                     	;# 
  1657  0827                     	;# 
  1658  0828                     	;# 
  1659  0829                     	;# 
  1660  082A                     	;# 
  1661  082B                     	;# 
  1662  082C                     	;# 
  1663  082D                     	;# 
  1664  082E                     	;# 
  1665  082F                     	;# 
  1666  0831                     	;# 
  1667  0832                     	;# 
  1668  0833                     	;# 
  1669  0834                     	;# 
  1670  0835                     	;# 
  1671  0836                     	;# 
  1672  0837                     	;# 
  1673  0838                     	;# 
  1674  0839                     	;# 
  1675  083A                     	;# 
  1676  083B                     	;# 
  1677  083C                     	;# 
  1678  083D                     	;# 
  1679  083E                     	;# 
  1680  083F                     	;# 
  1681  0840                     	;# 
  1682  0841                     	;# 
  1683  0841                     	;# 
  1684  0842                     	;# 
  1685  0843                     	;# 
  1686  0843                     	;# 
  1687  0844                     	;# 
  1688  0845                     	;# 
  1689  0845                     	;# 
  1690  0846                     	;# 
  1691  0847                     	;# 
  1692  0847                     	;# 
  1693  0848                     	;# 
  1694  0849                     	;# 
  1695  084A                     	;# 
  1696  084B                     	;# 
  1697  084C                     	;# 
  1698  084D                     	;# 
  1699  084E                     	;# 
  1700  084F                     	;# 
  1701  0851                     	;# 
  1702  0852                     	;# 
  1703  0853                     	;# 
  1704  0854                     	;# 
  1705  0855                     	;# 
  1706  0856                     	;# 
  1707  0857                     	;# 
  1708  0858                     	;# 
  1709  0859                     	;# 
  1710  085A                     	;# 
  1711  085B                     	;# 
  1712  085C                     	;# 
  1713  085D                     	;# 
  1714  085E                     	;# 
  1715  085F                     	;# 
  1716  0860                     	;# 
  1717  0861                     	;# 
  1718  0861                     	;# 
  1719  0862                     	;# 
  1720  0863                     	;# 
  1721  0863                     	;# 
  1722  0864                     	;# 
  1723  0865                     	;# 
  1724  0865                     	;# 
  1725  0866                     	;# 
  1726  0867                     	;# 
  1727  0867                     	;# 
  1728  0868                     	;# 
  1729  0869                     	;# 
  1730  086A                     	;# 
  1731  086B                     	;# 
  1732  086C                     	;# 
  1733  086D                     	;# 
  1734  086E                     	;# 
  1735  086F                     	;# 
  1736  0FE4                     	;# 
  1737  0FE5                     	;# 
  1738  0FE6                     	;# 
  1739  0FE7                     	;# 
  1740  0FE8                     	;# 
  1741  0FE9                     	;# 
  1742  0FEA                     	;# 
  1743  0FEB                     	;# 
  1744  0FED                     	;# 
  1745  0FEE                     	;# 
  1746  0FEF                     	;# 
  1747  0000                     	;# 
  1748  0001                     	;# 
  1749  0002                     	;# 
  1750  0003                     	;# 
  1751  0004                     	;# 
  1752  0005                     	;# 
  1753  0006                     	;# 
  1754  0007                     	;# 
  1755  0008                     	;# 
  1756  0009                     	;# 
  1757  000A                     	;# 
  1758  000B                     	;# 
  1759  000C                     	;# 
  1760  000D                     	;# 
  1761  000E                     	;# 
  1762  0010                     	;# 
  1763  0011                     	;# 
  1764  0012                     	;# 
  1765  0013                     	;# 
  1766  0014                     	;# 
  1767  0015                     	;# 
  1768  0016                     	;# 
  1769  0016                     	;# 
  1770  0017                     	;# 
  1771  0018                     	;# 
  1772  0019                     	;# 
  1773  001A                     	;# 
  1774  001B                     	;# 
  1775  001C                     	;# 
  1776  008C                     	;# 
  1777  008D                     	;# 
  1778  008E                     	;# 
  1779  0090                     	;# 
  1780  0091                     	;# 
  1781  0092                     	;# 
  1782  0093                     	;# 
  1783  0094                     	;# 
  1784  0095                     	;# 
  1785  0096                     	;# 
  1786  0097                     	;# 
  1787  0098                     	;# 
  1788  0099                     	;# 
  1789  009A                     	;# 
  1790  009B                     	;# 
  1791  009B                     	;# 
  1792  009C                     	;# 
  1793  009D                     	;# 
  1794  009E                     	;# 
  1795  009F                     	;# 
  1796  010C                     	;# 
  1797  010D                     	;# 
  1798  010E                     	;# 
  1799  0111                     	;# 
  1800  0112                     	;# 
  1801  0113                     	;# 
  1802  0114                     	;# 
  1803  0115                     	;# 
  1804  0116                     	;# 
  1805  0117                     	;# 
  1806  0118                     	;# 
  1807  0119                     	;# 
  1808  011A                     	;# 
  1809  011B                     	;# 
  1810  011C                     	;# 
  1811  011D                     	;# 
  1812  011D                     	;# 
  1813  011D                     	;# 
  1814  011E                     	;# 
  1815  011F                     	;# 
  1816  018C                     	;# 
  1817  018D                     	;# 
  1818  0191                     	;# 
  1819  0191                     	;# 
  1820  0192                     	;# 
  1821  0193                     	;# 
  1822  0193                     	;# 
  1823  0193                     	;# 
  1824  0194                     	;# 
  1825  0195                     	;# 
  1826  0196                     	;# 
  1827  0197                     	;# 
  1828  0199                     	;# 
  1829  0199                     	;# 
  1830  0199                     	;# 
  1831  019A                     	;# 
  1832  019A                     	;# 
  1833  019A                     	;# 
  1834  019B                     	;# 
  1835  019B                     	;# 
  1836  019B                     	;# 
  1837  019B                     	;# 
  1838  019B                     	;# 
  1839  019C                     	;# 
  1840  019C                     	;# 
  1841  019C                     	;# 
  1842  019D                     	;# 
  1843  019D                     	;# 
  1844  019D                     	;# 
  1845  019E                     	;# 
  1846  019E                     	;# 
  1847  019E                     	;# 
  1848  019F                     	;# 
  1849  019F                     	;# 
  1850  019F                     	;# 
  1851  019F                     	;# 
  1852  019F                     	;# 
  1853  020C                     	;# 
  1854  020D                     	;# 
  1855  020E                     	;# 
  1856  0210                     	;# 
  1857  0211                     	;# 
  1858  0211                     	;# 
  1859  0212                     	;# 
  1860  0212                     	;# 
  1861  0213                     	;# 
  1862  0213                     	;# 
  1863  0214                     	;# 
  1864  0214                     	;# 
  1865  0215                     	;# 
  1866  0215                     	;# 
  1867  0215                     	;# 
  1868  0215                     	;# 
  1869  0216                     	;# 
  1870  0216                     	;# 
  1871  0217                     	;# 
  1872  0217                     	;# 
  1873  028C                     	;# 
  1874  028D                     	;# 
  1875  028E                     	;# 
  1876  0291                     	;# 
  1877  0291                     	;# 
  1878  0292                     	;# 
  1879  0293                     	;# 
  1880  0298                     	;# 
  1881  0298                     	;# 
  1882  0299                     	;# 
  1883  029A                     	;# 
  1884  030C                     	;# 
  1885  030D                     	;# 
  1886  030E                     	;# 
  1887  0311                     	;# 
  1888  0311                     	;# 
  1889  0312                     	;# 
  1890  0313                     	;# 
  1891  038C                     	;# 
  1892  038D                     	;# 
  1893  038E                     	;# 
  1894  0390                     	;# 
  1895  0391                     	;# 
  1896  0392                     	;# 
  1897  0393                     	;# 
  1898  0394                     	;# 
  1899  0395                     	;# 
  1900  0396                     	;# 
  1901  0397                     	;# 
  1902  0398                     	;# 
  1903  0399                     	;# 
  1904  039D                     	;# 
  1905  039E                     	;# 
  1906  039F                     	;# 
  1907  0511                     	;# 
  1908  0513                     	;# 
  1909  051A                     	;# 
  1910  0811                     	;# 
  1911  0812                     	;# 
  1912  0813                     	;# 
  1913  0814                     	;# 
  1914  0815                     	;# 
  1915  0816                     	;# 
  1916  0817                     	;# 
  1917  0818                     	;# 
  1918  0819                     	;# 
  1919  081A                     	;# 
  1920  081B                     	;# 
  1921  081C                     	;# 
  1922  081D                     	;# 
  1923  081E                     	;# 
  1924  081F                     	;# 
  1925  0820                     	;# 
  1926  0821                     	;# 
  1927  0821                     	;# 
  1928  0822                     	;# 
  1929  0823                     	;# 
  1930  0823                     	;# 
  1931  0824                     	;# 
  1932  0825                     	;# 
  1933  0825                     	;# 
  1934  0826                     	;# 
  1935  0827                     	;# 
  1936  0827                     	;# 
  1937  0828                     	;# 
  1938  0829                     	;# 
  1939  082A                     	;# 
  1940  082B                     	;# 
  1941  082C                     	;# 
  1942  082D                     	;# 
  1943  082E                     	;# 
  1944  082F                     	;# 
  1945  0831                     	;# 
  1946  0832                     	;# 
  1947  0833                     	;# 
  1948  0834                     	;# 
  1949  0835                     	;# 
  1950  0836                     	;# 
  1951  0837                     	;# 
  1952  0838                     	;# 
  1953  0839                     	;# 
  1954  083A                     	;# 
  1955  083B                     	;# 
  1956  083C                     	;# 
  1957  083D                     	;# 
  1958  083E                     	;# 
  1959  083F                     	;# 
  1960  0840                     	;# 
  1961  0841                     	;# 
  1962  0841                     	;# 
  1963  0842                     	;# 
  1964  0843                     	;# 
  1965  0843                     	;# 
  1966  0844                     	;# 
  1967  0845                     	;# 
  1968  0845                     	;# 
  1969  0846                     	;# 
  1970  0847                     	;# 
  1971  0847                     	;# 
  1972  0848                     	;# 
  1973  0849                     	;# 
  1974  084A                     	;# 
  1975  084B                     	;# 
  1976  084C                     	;# 
  1977  084D                     	;# 
  1978  084E                     	;# 
  1979  084F                     	;# 
  1980  0851                     	;# 
  1981  0852                     	;# 
  1982  0853                     	;# 
  1983  0854                     	;# 
  1984  0855                     	;# 
  1985  0856                     	;# 
  1986  0857                     	;# 
  1987  0858                     	;# 
  1988  0859                     	;# 
  1989  085A                     	;# 
  1990  085B                     	;# 
  1991  085C                     	;# 
  1992  085D                     	;# 
  1993  085E                     	;# 
  1994  085F                     	;# 
  1995  0860                     	;# 
  1996  0861                     	;# 
  1997  0861                     	;# 
  1998  0862                     	;# 
  1999  0863                     	;# 
  2000  0863                     	;# 
  2001  0864                     	;# 
  2002  0865                     	;# 
  2003  0865                     	;# 
  2004  0866                     	;# 
  2005  0867                     	;# 
  2006  0867                     	;# 
  2007  0868                     	;# 
  2008  0869                     	;# 
  2009  086A                     	;# 
  2010  086B                     	;# 
  2011  086C                     	;# 
  2012  086D                     	;# 
  2013  086E                     	;# 
  2014  086F                     	;# 
  2015  0FE4                     	;# 
  2016  0FE5                     	;# 
  2017  0FE6                     	;# 
  2018  0FE7                     	;# 
  2019  0FE8                     	;# 
  2020  0FE9                     	;# 
  2021  0FEA                     	;# 
  2022  0FEB                     	;# 
  2023  0FED                     	;# 
  2024  0FEE                     	;# 
  2025  0FEF                     	;# 
  2026  0000                     	;# 
  2027  0001                     	;# 
  2028  0002                     	;# 
  2029  0003                     	;# 
  2030  0004                     	;# 
  2031  0005                     	;# 
  2032  0006                     	;# 
  2033  0007                     	;# 
  2034  0008                     	;# 
  2035  0009                     	;# 
  2036  000A                     	;# 
  2037  000B                     	;# 
  2038  000C                     	;# 
  2039  000D                     	;# 
  2040  000E                     	;# 
  2041  0010                     	;# 
  2042  0011                     	;# 
  2043  0012                     	;# 
  2044  0013                     	;# 
  2045  0014                     	;# 
  2046  0015                     	;# 
  2047  0016                     	;# 
  2048  0016                     	;# 
  2049  0017                     	;# 
  2050  0018                     	;# 
  2051  0019                     	;# 
  2052  001A                     	;# 
  2053  001B                     	;# 
  2054  001C                     	;# 
  2055  008C                     	;# 
  2056  008D                     	;# 
  2057  008E                     	;# 
  2058  0090                     	;# 
  2059  0091                     	;# 
  2060  0092                     	;# 
  2061  0093                     	;# 
  2062  0094                     	;# 
  2063  0095                     	;# 
  2064  0096                     	;# 
  2065  0097                     	;# 
  2066  0098                     	;# 
  2067  0099                     	;# 
  2068  009A                     	;# 
  2069  009B                     	;# 
  2070  009B                     	;# 
  2071  009C                     	;# 
  2072  009D                     	;# 
  2073  009E                     	;# 
  2074  009F                     	;# 
  2075  010C                     	;# 
  2076  010D                     	;# 
  2077  010E                     	;# 
  2078  0111                     	;# 
  2079  0112                     	;# 
  2080  0113                     	;# 
  2081  0114                     	;# 
  2082  0115                     	;# 
  2083  0116                     	;# 
  2084  0117                     	;# 
  2085  0118                     	;# 
  2086  0119                     	;# 
  2087  011A                     	;# 
  2088  011B                     	;# 
  2089  011C                     	;# 
  2090  011D                     	;# 
  2091  011D                     	;# 
  2092  011D                     	;# 
  2093  011E                     	;# 
  2094  011F                     	;# 
  2095  018C                     	;# 
  2096  018D                     	;# 
  2097  0191                     	;# 
  2098  0191                     	;# 
  2099  0192                     	;# 
  2100  0193                     	;# 
  2101  0193                     	;# 
  2102  0193                     	;# 
  2103  0194                     	;# 
  2104  0195                     	;# 
  2105  0196                     	;# 
  2106  0197                     	;# 
  2107  0199                     	;# 
  2108  0199                     	;# 
  2109  0199                     	;# 
  2110  019A                     	;# 
  2111  019A                     	;# 
  2112  019A                     	;# 
  2113  019B                     	;# 
  2114  019B                     	;# 
  2115  019B                     	;# 
  2116  019B                     	;# 
  2117  019B                     	;# 
  2118  019C                     	;# 
  2119  019C                     	;# 
  2120  019C                     	;# 
  2121  019D                     	;# 
  2122  019D                     	;# 
  2123  019D                     	;# 
  2124  019E                     	;# 
  2125  019E                     	;# 
  2126  019E                     	;# 
  2127  019F                     	;# 
  2128  019F                     	;# 
  2129  019F                     	;# 
  2130  019F                     	;# 
  2131  019F                     	;# 
  2132  020C                     	;# 
  2133  020D                     	;# 
  2134  020E                     	;# 
  2135  0210                     	;# 
  2136  0211                     	;# 
  2137  0211                     	;# 
  2138  0212                     	;# 
  2139  0212                     	;# 
  2140  0213                     	;# 
  2141  0213                     	;# 
  2142  0214                     	;# 
  2143  0214                     	;# 
  2144  0215                     	;# 
  2145  0215                     	;# 
  2146  0215                     	;# 
  2147  0215                     	;# 
  2148  0216                     	;# 
  2149  0216                     	;# 
  2150  0217                     	;# 
  2151  0217                     	;# 
  2152  028C                     	;# 
  2153  028D                     	;# 
  2154  028E                     	;# 
  2155  0291                     	;# 
  2156  0291                     	;# 
  2157  0292                     	;# 
  2158  0293                     	;# 
  2159  0298                     	;# 
  2160  0298                     	;# 
  2161  0299                     	;# 
  2162  029A                     	;# 
  2163  030C                     	;# 
  2164  030D                     	;# 
  2165  030E                     	;# 
  2166  0311                     	;# 
  2167  0311                     	;# 
  2168  0312                     	;# 
  2169  0313                     	;# 
  2170  038C                     	;# 
  2171  038D                     	;# 
  2172  038E                     	;# 
  2173  0390                     	;# 
  2174  0391                     	;# 
  2175  0392                     	;# 
  2176  0393                     	;# 
  2177  0394                     	;# 
  2178  0395                     	;# 
  2179  0396                     	;# 
  2180  0397                     	;# 
  2181  0398                     	;# 
  2182  0399                     	;# 
  2183  039D                     	;# 
  2184  039E                     	;# 
  2185  039F                     	;# 
  2186  0511                     	;# 
  2187  0513                     	;# 
  2188  051A                     	;# 
  2189  0811                     	;# 
  2190  0812                     	;# 
  2191  0813                     	;# 
  2192  0814                     	;# 
  2193  0815                     	;# 
  2194  0816                     	;# 
  2195  0817                     	;# 
  2196  0818                     	;# 
  2197  0819                     	;# 
  2198  081A                     	;# 
  2199  081B                     	;# 
  2200  081C                     	;# 
  2201  081D                     	;# 
  2202  081E                     	;# 
  2203  081F                     	;# 
  2204  0820                     	;# 
  2205  0821                     	;# 
  2206  0821                     	;# 
  2207  0822                     	;# 
  2208  0823                     	;# 
  2209  0823                     	;# 
  2210  0824                     	;# 
  2211  0825                     	;# 
  2212  0825                     	;# 
  2213  0826                     	;# 
  2214  0827                     	;# 
  2215  0827                     	;# 
  2216  0828                     	;# 
  2217  0829                     	;# 
  2218  082A                     	;# 
  2219  082B                     	;# 
  2220  082C                     	;# 
  2221  082D                     	;# 
  2222  082E                     	;# 
  2223  082F                     	;# 
  2224  0831                     	;# 
  2225  0832                     	;# 
  2226  0833                     	;# 
  2227  0834                     	;# 
  2228  0835                     	;# 
  2229  0836                     	;# 
  2230  0837                     	;# 
  2231  0838                     	;# 
  2232  0839                     	;# 
  2233  083A                     	;# 
  2234  083B                     	;# 
  2235  083C                     	;# 
  2236  083D                     	;# 
  2237  083E                     	;# 
  2238  083F                     	;# 
  2239  0840                     	;# 
  2240  0841                     	;# 
  2241  0841                     	;# 
  2242  0842                     	;# 
  2243  0843                     	;# 
  2244  0843                     	;# 
  2245  0844                     	;# 
  2246  0845                     	;# 
  2247  0845                     	;# 
  2248  0846                     	;# 
  2249  0847                     	;# 
  2250  0847                     	;# 
  2251  0848                     	;# 
  2252  0849                     	;# 
  2253  084A                     	;# 
  2254  084B                     	;# 
  2255  084C                     	;# 
  2256  084D                     	;# 
  2257  084E                     	;# 
  2258  084F                     	;# 
  2259  0851                     	;# 
  2260  0852                     	;# 
  2261  0853                     	;# 
  2262  0854                     	;# 
  2263  0855                     	;# 
  2264  0856                     	;# 
  2265  0857                     	;# 
  2266  0858                     	;# 
  2267  0859                     	;# 
  2268  085A                     	;# 
  2269  085B                     	;# 
  2270  085C                     	;# 
  2271  085D                     	;# 
  2272  085E                     	;# 
  2273  085F                     	;# 
  2274  0860                     	;# 
  2275  0861                     	;# 
  2276  0861                     	;# 
  2277  0862                     	;# 
  2278  0863                     	;# 
  2279  0863                     	;# 
  2280  0864                     	;# 
  2281  0865                     	;# 
  2282  0865                     	;# 
  2283  0866                     	;# 
  2284  0867                     	;# 
  2285  0867                     	;# 
  2286  0868                     	;# 
  2287  0869                     	;# 
  2288  086A                     	;# 
  2289  086B                     	;# 
  2290  086C                     	;# 
  2291  086D                     	;# 
  2292  086E                     	;# 
  2293  086F                     	;# 
  2294  0FE4                     	;# 
  2295  0FE5                     	;# 
  2296  0FE6                     	;# 
  2297  0FE7                     	;# 
  2298  0FE8                     	;# 
  2299  0FE9                     	;# 
  2300  0FEA                     	;# 
  2301  0FEB                     	;# 
  2302  0FED                     	;# 
  2303  0FEE                     	;# 
  2304  0FEF                     	;# 
  2305  0000                     	;# 
  2306  0001                     	;# 
  2307  0002                     	;# 
  2308  0003                     	;# 
  2309  0004                     	;# 
  2310  0005                     	;# 
  2311  0006                     	;# 
  2312  0007                     	;# 
  2313  0008                     	;# 
  2314  0009                     	;# 
  2315  000A                     	;# 
  2316  000B                     	;# 
  2317  000C                     	;# 
  2318  000D                     	;# 
  2319  000E                     	;# 
  2320  0010                     	;# 
  2321  0011                     	;# 
  2322  0012                     	;# 
  2323  0013                     	;# 
  2324  0014                     	;# 
  2325  0015                     	;# 
  2326  0016                     	;# 
  2327  0016                     	;# 
  2328  0017                     	;# 
  2329  0018                     	;# 
  2330  0019                     	;# 
  2331  001A                     	;# 
  2332  001B                     	;# 
  2333  001C                     	;# 
  2334  008C                     	;# 
  2335  008D                     	;# 
  2336  008E                     	;# 
  2337  0090                     	;# 
  2338  0091                     	;# 
  2339  0092                     	;# 
  2340  0093                     	;# 
  2341  0094                     	;# 
  2342  0095                     	;# 
  2343  0096                     	;# 
  2344  0097                     	;# 
  2345  0098                     	;# 
  2346  0099                     	;# 
  2347  009A                     	;# 
  2348  009B                     	;# 
  2349  009B                     	;# 
  2350  009C                     	;# 
  2351  009D                     	;# 
  2352  009E                     	;# 
  2353  009F                     	;# 
  2354  010C                     	;# 
  2355  010D                     	;# 
  2356  010E                     	;# 
  2357  0111                     	;# 
  2358  0112                     	;# 
  2359  0113                     	;# 
  2360  0114                     	;# 
  2361  0115                     	;# 
  2362  0116                     	;# 
  2363  0117                     	;# 
  2364  0118                     	;# 
  2365  0119                     	;# 
  2366  011A                     	;# 
  2367  011B                     	;# 
  2368  011C                     	;# 
  2369  011D                     	;# 
  2370  011D                     	;# 
  2371  011D                     	;# 
  2372  011E                     	;# 
  2373  011F                     	;# 
  2374  018C                     	;# 
  2375  018D                     	;# 
  2376  0191                     	;# 
  2377  0191                     	;# 
  2378  0192                     	;# 
  2379  0193                     	;# 
  2380  0193                     	;# 
  2381  0193                     	;# 
  2382  0194                     	;# 
  2383  0195                     	;# 
  2384  0196                     	;# 
  2385  0197                     	;# 
  2386  0199                     	;# 
  2387  0199                     	;# 
  2388  0199                     	;# 
  2389  019A                     	;# 
  2390  019A                     	;# 
  2391  019A                     	;# 
  2392  019B                     	;# 
  2393  019B                     	;# 
  2394  019B                     	;# 
  2395  019B                     	;# 
  2396  019B                     	;# 
  2397  019C                     	;# 
  2398  019C                     	;# 
  2399  019C                     	;# 
  2400  019D                     	;# 
  2401  019D                     	;# 
  2402  019D                     	;# 
  2403  019E                     	;# 
  2404  019E                     	;# 
  2405  019E                     	;# 
  2406  019F                     	;# 
  2407  019F                     	;# 
  2408  019F                     	;# 
  2409  019F                     	;# 
  2410  019F                     	;# 
  2411  020C                     	;# 
  2412  020D                     	;# 
  2413  020E                     	;# 
  2414  0210                     	;# 
  2415  0211                     	;# 
  2416  0211                     	;# 
  2417  0212                     	;# 
  2418  0212                     	;# 
  2419  0213                     	;# 
  2420  0213                     	;# 
  2421  0214                     	;# 
  2422  0214                     	;# 
  2423  0215                     	;# 
  2424  0215                     	;# 
  2425  0215                     	;# 
  2426  0215                     	;# 
  2427  0216                     	;# 
  2428  0216                     	;# 
  2429  0217                     	;# 
  2430  0217                     	;# 
  2431  028C                     	;# 
  2432  028D                     	;# 
  2433  028E                     	;# 
  2434  0291                     	;# 
  2435  0291                     	;# 
  2436  0292                     	;# 
  2437  0293                     	;# 
  2438  0298                     	;# 
  2439  0298                     	;# 
  2440  0299                     	;# 
  2441  029A                     	;# 
  2442  030C                     	;# 
  2443  030D                     	;# 
  2444  030E                     	;# 
  2445  0311                     	;# 
  2446  0311                     	;# 
  2447  0312                     	;# 
  2448  0313                     	;# 
  2449  038C                     	;# 
  2450  038D                     	;# 
  2451  038E                     	;# 
  2452  0390                     	;# 
  2453  0391                     	;# 
  2454  0392                     	;# 
  2455  0393                     	;# 
  2456  0394                     	;# 
  2457  0395                     	;# 
  2458  0396                     	;# 
  2459  0397                     	;# 
  2460  0398                     	;# 
  2461  0399                     	;# 
  2462  039D                     	;# 
  2463  039E                     	;# 
  2464  039F                     	;# 
  2465  0511                     	;# 
  2466  0513                     	;# 
  2467  051A                     	;# 
  2468  0811                     	;# 
  2469  0812                     	;# 
  2470  0813                     	;# 
  2471  0814                     	;# 
  2472  0815                     	;# 
  2473  0816                     	;# 
  2474  0817                     	;# 
  2475  0818                     	;# 
  2476  0819                     	;# 
  2477  081A                     	;# 
  2478  081B                     	;# 
  2479  081C                     	;# 
  2480  081D                     	;# 
  2481  081E                     	;# 
  2482  081F                     	;# 
  2483  0820                     	;# 
  2484  0821                     	;# 
  2485  0821                     	;# 
  2486  0822                     	;# 
  2487  0823                     	;# 
  2488  0823                     	;# 
  2489  0824                     	;# 
  2490  0825                     	;# 
  2491  0825                     	;# 
  2492  0826                     	;# 
  2493  0827                     	;# 
  2494  0827                     	;# 
  2495  0828                     	;# 
  2496  0829                     	;# 
  2497  082A                     	;# 
  2498  082B                     	;# 
  2499  082C                     	;# 
  2500  082D                     	;# 
  2501  082E                     	;# 
  2502  082F                     	;# 
  2503  0831                     	;# 
  2504  0832                     	;# 
  2505  0833                     	;# 
  2506  0834                     	;# 
  2507  0835                     	;# 
  2508  0836                     	;# 
  2509  0837                     	;# 
  2510  0838                     	;# 
  2511  0839                     	;# 
  2512  083A                     	;# 
  2513  083B                     	;# 
  2514  083C                     	;# 
  2515  083D                     	;# 
  2516  083E                     	;# 
  2517  083F                     	;# 
  2518  0840                     	;# 
  2519  0841                     	;# 
  2520  0841                     	;# 
  2521  0842                     	;# 
  2522  0843                     	;# 
  2523  0843                     	;# 
  2524  0844                     	;# 
  2525  0845                     	;# 
  2526  0845                     	;# 
  2527  0846                     	;# 
  2528  0847                     	;# 
  2529  0847                     	;# 
  2530  0848                     	;# 
  2531  0849                     	;# 
  2532  084A                     	;# 
  2533  084B                     	;# 
  2534  084C                     	;# 
  2535  084D                     	;# 
  2536  084E                     	;# 
  2537  084F                     	;# 
  2538  0851                     	;# 
  2539  0852                     	;# 
  2540  0853                     	;# 
  2541  0854                     	;# 
  2542  0855                     	;# 
  2543  0856                     	;# 
  2544  0857                     	;# 
  2545  0858                     	;# 
  2546  0859                     	;# 
  2547  085A                     	;# 
  2548  085B                     	;# 
  2549  085C                     	;# 
  2550  085D                     	;# 
  2551  085E                     	;# 
  2552  085F                     	;# 
  2553  0860                     	;# 
  2554  0861                     	;# 
  2555  0861                     	;# 
  2556  0862                     	;# 
  2557  0863                     	;# 
  2558  0863                     	;# 
  2559  0864                     	;# 
  2560  0865                     	;# 
  2561  0865                     	;# 
  2562  0866                     	;# 
  2563  0867                     	;# 
  2564  0867                     	;# 
  2565  0868                     	;# 
  2566  0869                     	;# 
  2567  086A                     	;# 
  2568  086B                     	;# 
  2569  086C                     	;# 
  2570  086D                     	;# 
  2571  086E                     	;# 
  2572  086F                     	;# 
  2573  0FE4                     	;# 
  2574  0FE5                     	;# 
  2575  0FE6                     	;# 
  2576  0FE7                     	;# 
  2577  0FE8                     	;# 
  2578  0FE9                     	;# 
  2579  0FEA                     	;# 
  2580  0FEB                     	;# 
  2581  0FED                     	;# 
  2582  0FEE                     	;# 
  2583  0FEF                     	;# 
  2584  0000                     	;# 
  2585  0001                     	;# 
  2586  0002                     	;# 
  2587  0003                     	;# 
  2588  0004                     	;# 
  2589  0005                     	;# 
  2590  0006                     	;# 
  2591  0007                     	;# 
  2592  0008                     	;# 
  2593  0009                     	;# 
  2594  000A                     	;# 
  2595  000B                     	;# 
  2596  000C                     	;# 
  2597  000D                     	;# 
  2598  000E                     	;# 
  2599  0010                     	;# 
  2600  0011                     	;# 
  2601  0012                     	;# 
  2602  0013                     	;# 
  2603  0014                     	;# 
  2604  0015                     	;# 
  2605  0016                     	;# 
  2606  0016                     	;# 
  2607  0017                     	;# 
  2608  0018                     	;# 
  2609  0019                     	;# 
  2610  001A                     	;# 
  2611  001B                     	;# 
  2612  001C                     	;# 
  2613  008C                     	;# 
  2614  008D                     	;# 
  2615  008E                     	;# 
  2616  0090                     	;# 
  2617  0091                     	;# 
  2618  0092                     	;# 
  2619  0093                     	;# 
  2620  0094                     	;# 
  2621  0095                     	;# 
  2622  0096                     	;# 
  2623  0097                     	;# 
  2624  0098                     	;# 
  2625  0099                     	;# 
  2626  009A                     	;# 
  2627  009B                     	;# 
  2628  009B                     	;# 
  2629  009C                     	;# 
  2630  009D                     	;# 
  2631  009E                     	;# 
  2632  009F                     	;# 
  2633  010C                     	;# 
  2634  010D                     	;# 
  2635  010E                     	;# 
  2636  0111                     	;# 
  2637  0112                     	;# 
  2638  0113                     	;# 
  2639  0114                     	;# 
  2640  0115                     	;# 
  2641  0116                     	;# 
  2642  0117                     	;# 
  2643  0118                     	;# 
  2644  0119                     	;# 
  2645  011A                     	;# 
  2646  011B                     	;# 
  2647  011C                     	;# 
  2648  011D                     	;# 
  2649  011D                     	;# 
  2650  011D                     	;# 
  2651  011E                     	;# 
  2652  011F                     	;# 
  2653  018C                     	;# 
  2654  018D                     	;# 
  2655  0191                     	;# 
  2656  0191                     	;# 
  2657  0192                     	;# 
  2658  0193                     	;# 
  2659  0193                     	;# 
  2660  0193                     	;# 
  2661  0194                     	;# 
  2662  0195                     	;# 
  2663  0196                     	;# 
  2664  0197                     	;# 
  2665  0199                     	;# 
  2666  0199                     	;# 
  2667  0199                     	;# 
  2668  019A                     	;# 
  2669  019A                     	;# 
  2670  019A                     	;# 
  2671  019B                     	;# 
  2672  019B                     	;# 
  2673  019B                     	;# 
  2674  019B                     	;# 
  2675  019B                     	;# 
  2676  019C                     	;# 
  2677  019C                     	;# 
  2678  019C                     	;# 
  2679  019D                     	;# 
  2680  019D                     	;# 
  2681  019D                     	;# 
  2682  019E                     	;# 
  2683  019E                     	;# 
  2684  019E                     	;# 
  2685  019F                     	;# 
  2686  019F                     	;# 
  2687  019F                     	;# 
  2688  019F                     	;# 
  2689  019F                     	;# 
  2690  020C                     	;# 
  2691  020D                     	;# 
  2692  020E                     	;# 
  2693  0210                     	;# 
  2694  0211                     	;# 
  2695  0211                     	;# 
  2696  0212                     	;# 
  2697  0212                     	;# 
  2698  0213                     	;# 
  2699  0213                     	;# 
  2700  0214                     	;# 
  2701  0214                     	;# 
  2702  0215                     	;# 
  2703  0215                     	;# 
  2704  0215                     	;# 
  2705  0215                     	;# 
  2706  0216                     	;# 
  2707  0216                     	;# 
  2708  0217                     	;# 
  2709  0217                     	;# 
  2710  028C                     	;# 
  2711  028D                     	;# 
  2712  028E                     	;# 
  2713  0291                     	;# 
  2714  0291                     	;# 
  2715  0292                     	;# 
  2716  0293                     	;# 
  2717  0298                     	;# 
  2718  0298                     	;# 
  2719  0299                     	;# 
  2720  029A                     	;# 
  2721  030C                     	;# 
  2722  030D                     	;# 
  2723  030E                     	;# 
  2724  0311                     	;# 
  2725  0311                     	;# 
  2726  0312                     	;# 
  2727  0313                     	;# 
  2728  038C                     	;# 
  2729  038D                     	;# 
  2730  038E                     	;# 
  2731  0390                     	;# 
  2732  0391                     	;# 
  2733  0392                     	;# 
  2734  0393                     	;# 
  2735  0394                     	;# 
  2736  0395                     	;# 
  2737  0396                     	;# 
  2738  0397                     	;# 
  2739  0398                     	;# 
  2740  0399                     	;# 
  2741  039D                     	;# 
  2742  039E                     	;# 
  2743  039F                     	;# 
  2744  0511                     	;# 
  2745  0513                     	;# 
  2746  051A                     	;# 
  2747  0811                     	;# 
  2748  0812                     	;# 
  2749  0813                     	;# 
  2750  0814                     	;# 
  2751  0815                     	;# 
  2752  0816                     	;# 
  2753  0817                     	;# 
  2754  0818                     	;# 
  2755  0819                     	;# 
  2756  081A                     	;# 
  2757  081B                     	;# 
  2758  081C                     	;# 
  2759  081D                     	;# 
  2760  081E                     	;# 
  2761  081F                     	;# 
  2762  0820                     	;# 
  2763  0821                     	;# 
  2764  0821                     	;# 
  2765  0822                     	;# 
  2766  0823                     	;# 
  2767  0823                     	;# 
  2768  0824                     	;# 
  2769  0825                     	;# 
  2770  0825                     	;# 
  2771  0826                     	;# 
  2772  0827                     	;# 
  2773  0827                     	;# 
  2774  0828                     	;# 
  2775  0829                     	;# 
  2776  082A                     	;# 
  2777  082B                     	;# 
  2778  082C                     	;# 
  2779  082D                     	;# 
  2780  082E                     	;# 
  2781  082F                     	;# 
  2782  0831                     	;# 
  2783  0832                     	;# 
  2784  0833                     	;# 
  2785  0834                     	;# 
  2786  0835                     	;# 
  2787  0836                     	;# 
  2788  0837                     	;# 
  2789  0838                     	;# 
  2790  0839                     	;# 
  2791  083A                     	;# 
  2792  083B                     	;# 
  2793  083C                     	;# 
  2794  083D                     	;# 
  2795  083E                     	;# 
  2796  083F                     	;# 
  2797  0840                     	;# 
  2798  0841                     	;# 
  2799  0841                     	;# 
  2800  0842                     	;# 
  2801  0843                     	;# 
  2802  0843                     	;# 
  2803  0844                     	;# 
  2804  0845                     	;# 
  2805  0845                     	;# 
  2806  0846                     	;# 
  2807  0847                     	;# 
  2808  0847                     	;# 
  2809  0848                     	;# 
  2810  0849                     	;# 
  2811  084A                     	;# 
  2812  084B                     	;# 
  2813  084C                     	;# 
  2814  084D                     	;# 
  2815  084E                     	;# 
  2816  084F                     	;# 
  2817  0851                     	;# 
  2818  0852                     	;# 
  2819  0853                     	;# 
  2820  0854                     	;# 
  2821  0855                     	;# 
  2822  0856                     	;# 
  2823  0857                     	;# 
  2824  0858                     	;# 
  2825  0859                     	;# 
  2826  085A                     	;# 
  2827  085B                     	;# 
  2828  085C                     	;# 
  2829  085D                     	;# 
  2830  085E                     	;# 
  2831  085F                     	;# 
  2832  0860                     	;# 
  2833  0861                     	;# 
  2834  0861                     	;# 
  2835  0862                     	;# 
  2836  0863                     	;# 
  2837  0863                     	;# 
  2838  0864                     	;# 
  2839  0865                     	;# 
  2840  0865                     	;# 
  2841  0866                     	;# 
  2842  0867                     	;# 
  2843  0867                     	;# 
  2844  0868                     	;# 
  2845  0869                     	;# 
  2846  086A                     	;# 
  2847  086B                     	;# 
  2848  086C                     	;# 
  2849  086D                     	;# 
  2850  086E                     	;# 
  2851  086F                     	;# 
  2852  0FE4                     	;# 
  2853  0FE5                     	;# 
  2854  0FE6                     	;# 
  2855  0FE7                     	;# 
  2856  0FE8                     	;# 
  2857  0FE9                     	;# 
  2858  0FEA                     	;# 
  2859  0FEB                     	;# 
  2860  0FED                     	;# 
  2861  0FEE                     	;# 
  2862  0FEF                     	;# 
  2863  0000                     	;# 
  2864  0001                     	;# 
  2865  0002                     	;# 
  2866  0003                     	;# 
  2867  0004                     	;# 
  2868  0005                     	;# 
  2869  0006                     	;# 
  2870  0007                     	;# 
  2871  0008                     	;# 
  2872  0009                     	;# 
  2873  000A                     	;# 
  2874  000B                     	;# 
  2875  000C                     	;# 
  2876  000D                     	;# 
  2877  000E                     	;# 
  2878  0010                     	;# 
  2879  0011                     	;# 
  2880  0012                     	;# 
  2881  0013                     	;# 
  2882  0014                     	;# 
  2883  0015                     	;# 
  2884  0016                     	;# 
  2885  0016                     	;# 
  2886  0017                     	;# 
  2887  0018                     	;# 
  2888  0019                     	;# 
  2889  001A                     	;# 
  2890  001B                     	;# 
  2891  001C                     	;# 
  2892  008C                     	;# 
  2893  008D                     	;# 
  2894  008E                     	;# 
  2895  0090                     	;# 
  2896  0091                     	;# 
  2897  0092                     	;# 
  2898  0093                     	;# 
  2899  0094                     	;# 
  2900  0095                     	;# 
  2901  0096                     	;# 
  2902  0097                     	;# 
  2903  0098                     	;# 
  2904  0099                     	;# 
  2905  009A                     	;# 
  2906  009B                     	;# 
  2907  009B                     	;# 
  2908  009C                     	;# 
  2909  009D                     	;# 
  2910  009E                     	;# 
  2911  009F                     	;# 
  2912  010C                     	;# 
  2913  010D                     	;# 
  2914  010E                     	;# 
  2915  0111                     	;# 
  2916  0112                     	;# 
  2917  0113                     	;# 
  2918  0114                     	;# 
  2919  0115                     	;# 
  2920  0116                     	;# 
  2921  0117                     	;# 
  2922  0118                     	;# 
  2923  0119                     	;# 
  2924  011A                     	;# 
  2925  011B                     	;# 
  2926  011C                     	;# 
  2927  011D                     	;# 
  2928  011D                     	;# 
  2929  011D                     	;# 
  2930  011E                     	;# 
  2931  011F                     	;# 
  2932  018C                     	;# 
  2933  018D                     	;# 
  2934  0191                     	;# 
  2935  0191                     	;# 
  2936  0192                     	;# 
  2937  0193                     	;# 
  2938  0193                     	;# 
  2939  0193                     	;# 
  2940  0194                     	;# 
  2941  0195                     	;# 
  2942  0196                     	;# 
  2943  0197                     	;# 
  2944  0199                     	;# 
  2945  0199                     	;# 
  2946  0199                     	;# 
  2947  019A                     	;# 
  2948  019A                     	;# 
  2949  019A                     	;# 
  2950  019B                     	;# 
  2951  019B                     	;# 
  2952  019B                     	;# 
  2953  019B                     	;# 
  2954  019B                     	;# 
  2955  019C                     	;# 
  2956  019C                     	;# 
  2957  019C                     	;# 
  2958  019D                     	;# 
  2959  019D                     	;# 
  2960  019D                     	;# 
  2961  019E                     	;# 
  2962  019E                     	;# 
  2963  019E                     	;# 
  2964  019F                     	;# 
  2965  019F                     	;# 
  2966  019F                     	;# 
  2967  019F                     	;# 
  2968  019F                     	;# 
  2969  020C                     	;# 
  2970  020D                     	;# 
  2971  020E                     	;# 
  2972  0210                     	;# 
  2973  0211                     	;# 
  2974  0211                     	;# 
  2975  0212                     	;# 
  2976  0212                     	;# 
  2977  0213                     	;# 
  2978  0213                     	;# 
  2979  0214                     	;# 
  2980  0214                     	;# 
  2981  0215                     	;# 
  2982  0215                     	;# 
  2983  0215                     	;# 
  2984  0215                     	;# 
  2985  0216                     	;# 
  2986  0216                     	;# 
  2987  0217                     	;# 
  2988  0217                     	;# 
  2989  028C                     	;# 
  2990  028D                     	;# 
  2991  028E                     	;# 
  2992  0291                     	;# 
  2993  0291                     	;# 
  2994  0292                     	;# 
  2995  0293                     	;# 
  2996  0298                     	;# 
  2997  0298                     	;# 
  2998  0299                     	;# 
  2999  029A                     	;# 
  3000  030C                     	;# 
  3001  030D                     	;# 
  3002  030E                     	;# 
  3003  0311                     	;# 
  3004  0311                     	;# 
  3005  0312                     	;# 
  3006  0313                     	;# 
  3007  038C                     	;# 
  3008  038D                     	;# 
  3009  038E                     	;# 
  3010  0390                     	;# 
  3011  0391                     	;# 
  3012  0392                     	;# 
  3013  0393                     	;# 
  3014  0394                     	;# 
  3015  0395                     	;# 
  3016  0396                     	;# 
  3017  0397                     	;# 
  3018  0398                     	;# 
  3019  0399                     	;# 
  3020  039D                     	;# 
  3021  039E                     	;# 
  3022  039F                     	;# 
  3023  0511                     	;# 
  3024  0513                     	;# 
  3025  051A                     	;# 
  3026  0811                     	;# 
  3027  0812                     	;# 
  3028  0813                     	;# 
  3029  0814                     	;# 
  3030  0815                     	;# 
  3031  0816                     	;# 
  3032  0817                     	;# 
  3033  0818                     	;# 
  3034  0819                     	;# 
  3035  081A                     	;# 
  3036  081B                     	;# 
  3037  081C                     	;# 
  3038  081D                     	;# 
  3039  081E                     	;# 
  3040  081F                     	;# 
  3041  0820                     	;# 
  3042  0821                     	;# 
  3043  0821                     	;# 
  3044  0822                     	;# 
  3045  0823                     	;# 
  3046  0823                     	;# 
  3047  0824                     	;# 
  3048  0825                     	;# 
  3049  0825                     	;# 
  3050  0826                     	;# 
  3051  0827                     	;# 
  3052  0827                     	;# 
  3053  0828                     	;# 
  3054  0829                     	;# 
  3055  082A                     	;# 
  3056  082B                     	;# 
  3057  082C                     	;# 
  3058  082D                     	;# 
  3059  082E                     	;# 
  3060  082F                     	;# 
  3061  0831                     	;# 
  3062  0832                     	;# 
  3063  0833                     	;# 
  3064  0834                     	;# 
  3065  0835                     	;# 
  3066  0836                     	;# 
  3067  0837                     	;# 
  3068  0838                     	;# 
  3069  0839                     	;# 
  3070  083A                     	;# 
  3071  083B                     	;# 
  3072  083C                     	;# 
  3073  083D                     	;# 
  3074  083E                     	;# 
  3075  083F                     	;# 
  3076  0840                     	;# 
  3077  0841                     	;# 
  3078  0841                     	;# 
  3079  0842                     	;# 
  3080  0843                     	;# 
  3081  0843                     	;# 
  3082  0844                     	;# 
  3083  0845                     	;# 
  3084  0845                     	;# 
  3085  0846                     	;# 
  3086  0847                     	;# 
  3087  0847                     	;# 
  3088  0848                     	;# 
  3089  0849                     	;# 
  3090  084A                     	;# 
  3091  084B                     	;# 
  3092  084C                     	;# 
  3093  084D                     	;# 
  3094  084E                     	;# 
  3095  084F                     	;# 
  3096  0851                     	;# 
  3097  0852                     	;# 
  3098  0853                     	;# 
  3099  0854                     	;# 
  3100  0855                     	;# 
  3101  0856                     	;# 
  3102  0857                     	;# 
  3103  0858                     	;# 
  3104  0859                     	;# 
  3105  085A                     	;# 
  3106  085B                     	;# 
  3107  085C                     	;# 
  3108  085D                     	;# 
  3109  085E                     	;# 
  3110  085F                     	;# 
  3111  0860                     	;# 
  3112  0861                     	;# 
  3113  0861                     	;# 
  3114  0862                     	;# 
  3115  0863                     	;# 
  3116  0863                     	;# 
  3117  0864                     	;# 
  3118  0865                     	;# 
  3119  0865                     	;# 
  3120  0866                     	;# 
  3121  0867                     	;# 
  3122  0867                     	;# 
  3123  0868                     	;# 
  3124  0869                     	;# 
  3125  086A                     	;# 
  3126  086B                     	;# 
  3127  086C                     	;# 
  3128  086D                     	;# 
  3129  086E                     	;# 
  3130  086F                     	;# 
  3131  0FE4                     	;# 
  3132  0FE5                     	;# 
  3133  0FE6                     	;# 
  3134  0FE7                     	;# 
  3135  0FE8                     	;# 
  3136  0FE9                     	;# 
  3137  0FEA                     	;# 
  3138  0FEB                     	;# 
  3139  0FED                     	;# 
  3140  0FEE                     	;# 
  3141  0FEF                     	;# 
  3142                           
  3143                           	psect	stringtext1
  3144  02A1                     __pstringtext1:	
  3145  02A1                     _segmcode:	
  3146  02A1  3408               	retlw	8
  3147  02A2  347C               	retlw	124
  3148  02A3  3411               	retlw	17
  3149  02A4  3430               	retlw	48
  3150  02A5  3464               	retlw	100
  3151  02A6  3422               	retlw	34
  3152  02A7  3402               	retlw	2
  3153  02A8  3478               	retlw	120
  3154  02A9  3400               	retlw	0
  3155  02AA  3420               	retlw	32
  3156  02AB  34FF               	retlw	255
  3157  02AC                     __end_of_segmcode:	
  3158  0012                     _PIR2bits	set	18
  3159  000C                     _PORTAbits	set	12
  3160  0015                     _TMR0	set	21
  3161  0018                     _T1CONbits	set	24
  3162  0016                     _TMR1L	set	22
  3163  0017                     _TMR1H	set	23
  3164  0011                     _PIR1bits	set	17
  3165  000E                     _PORTCbits	set	14
  3166  000B                     _INTCONbits	set	11
  3167  005E                     _PEIE	set	94
  3168  005F                     _GIE	set	95
  3169  0074                     _RC4	set	116
  3170  008C                     _TXIF	set	140
  3171  0092                     _PIE2bits	set	146
  3172  0091                     _PIE1bits	set	145
  3173  008E                     _TRISCbits	set	142
  3174  008E                     _TRISC	set	142
  3175  008D                     _TRISB	set	141
  3176  008C                     _TRISA	set	140
  3177  0095                     _OPTION_REGbits	set	149
  3178  0099                     _OSCCONbits	set	153
  3179  048D                     _RCIE	set	1165
  3180  048C                     _TXIE	set	1164
  3181  0473                     _TRISC3	set	1139
  3182  0474                     _TRISC4	set	1140
  3183  010C                     _LATAbits	set	268
  3184  010D                     _LATBbits	set	269
  3185  010E                     _LATC	set	270
  3186  010D                     _LATB	set	269
  3187  010C                     _LATA	set	268
  3188  08E9                     _RXSEL	set	2281
  3189  08EA                     _TXSEL	set	2282
  3190  0874                     _LATC4	set	2164
  3191  0873                     _LATC3	set	2163
  3192  0199                     _RCREG	set	409
  3193  019A                     _TXREG	set	410
  3194  019B                     _SPBRGL	set	411
  3195  019C                     _SPBRGH	set	412
  3196  0CEC                     _CREN	set	3308
  3197  0CEF                     _SPEN	set	3311
  3198  0CF5                     _TXEN	set	3317
  3199  0CFB                     _BRG16	set	3323
  3200  0CF2                     _BRGH	set	3314
  3201  0CF4                     _SYNC	set	3316
  3202  020E                     _WPUCbits	set	526
  3203  020E                     _WPUC	set	526
  3204  020D                     _WPUB	set	525
  3205  020C                     _WPUA	set	524
  3206  1073                     _WPUC3	set	4211
  3207  1074                     _WPUC4	set	4212
  3208  029A                     _CCP2CONbits	set	666
  3209  0298                     _CCPR2L	set	664
  3210  0299                     _CCPR2H	set	665
  3211  1474                     _ODCONC4	set	5236
  3212  1473                     _ODCONC3	set	5235
  3213  0399                     _IOCCFbits	set	921
  3214  0397                     _IOCCPbits	set	919
  3215  0398                     _IOCCN	set	920
  3216  0397                     _IOCCP	set	919
  3217  0395                     _IOCBN	set	917
  3218  0394                     _IOCBP	set	916
  3219  0392                     _IOCAN	set	914
  3220  0391                     _IOCAP	set	913
  3221                           
  3222                           ; #config settings
  3223  0000                     
  3224                           	psect	cinit
  3225  0039                     start_initialization:	
  3226  0039                     __initialization:	
  3227                           
  3228                           ; Clear objects allocated to COMMON
  3229  0039  01FB               	clrf	__pbssCOMMON& (0+127)
  3230  003A  01FC               	clrf	(__pbssCOMMON+1)& (0+127)
  3231  003B  01FD               	clrf	(__pbssCOMMON+2)& (0+127)
  3232                           
  3233                           ; Clear objects allocated to BANK0
  3234  003C  3020               	movlw	low __pbssBANK0
  3235  003D  0084               	movwf	4
  3236  003E  3000               	movlw	high __pbssBANK0
  3237  003F  0085               	movwf	5
  3238  0040  3016               	movlw	22
  3239  0041  3182  22D4  3180   	fcall	clear_ram0
  3240                           
  3241                           ; Clear objects allocated to BANK1
  3242  0044  30A0               	movlw	low __pbssBANK1
  3243  0045  0084               	movwf	4
  3244  0046  3000               	movlw	high __pbssBANK1
  3245  0047  0085               	movwf	5
  3246  0048  3027               	movlw	39
  3247  0049  3182  22D4         	fcall	clear_ram0
  3248  004B                     end_of_initialization:	
  3249                           ;End of C runtime variable initialization code
  3250                           
  3251  004B                     __end_of__initialization:	
  3252  004B  107E               	bcf	int$flags,0	;clear compiler interrupt flag (level 1)
  3253  004C  0020               	movlb	0
  3254  004D  3182  2A2D         	ljmp	_main	;jump to C main() function
  3255                           
  3256                           	psect	bssCOMMON
  3257  007B                     __pbssCOMMON:	
  3258  007B                     _temp_l:	
  3259  007B                     	ds	1
  3260  007C                     _temp_h:	
  3261  007C                     	ds	1
  3262  007D                     tmp_change@history_key:	
  3263  007D                     	ds	1
  3264                           
  3265                           	psect	bssBANK0
  3266  0020                     __pbssBANK0:	
  3267  0020                     key_isPressed@key_time_cnt:	
  3268  0020                     	ds	2
  3269  0022                     capture_handdle@last_cnt:	
  3270  0022                     	ds	2
  3271  0024                     _Temp:	
  3272  0024                     	ds	2
  3273  0026                     main@i:	
  3274  0026                     	ds	2
  3275  0028                     ISR@cnt:	
  3276  0028                     	ds	2
  3277  002A                     tmp_change@key_time_cnt:	
  3278  002A                     	ds	2
  3279  002C                     receive_decode@cnt_low:	
  3280  002C                     	ds	1
  3281  002D                     key_isPressed@history_key:	
  3282  002D                     	ds	1
  3283  002E                     led_Blink@State:	
  3284  002E                     	ds	1
  3285  002F                     display_update@i:	
  3286  002F                     	ds	1
  3287  0030                     _flg_rc:	
  3288  0030                     	ds	1
  3289  0031                     _TX_en:	
  3290  0031                     	ds	1
  3291  0032                     _RX_data:	
  3292  0032                     	ds	1
  3293  0033                     _TX_data:	
  3294  0033                     	ds	1
  3295  0034                     main@cnt:	
  3296  0034                     	ds	1
  3297  0035                     _ENUM:	
  3298  0035                     	ds	1
  3299                           
  3300                           	psect	bssBANK1
  3301  00A0                     __pbssBANK1:	
  3302  00A0                     _g_data:	
  3303  00A0                     	ds	39
  3304                           
  3305                           	psect	clrtext
  3306  02D4                     clear_ram0:	
  3307                           ;	Called with FSR0 containing the base address, and
  3308                           ;	WREG with the size to clear
  3309                           
  3310  02D4  0064               	clrwdt	;clear the watchdog before getting into this loop
  3311  02D5                     clrloop0:	
  3312  02D5  0180               	clrf	0	;clear RAM location pointed to by FSR
  3313  02D6  3101               	addfsr 0,1
  3314  02D7  0B89               	decfsz	9,f	;Have we reached the end of clearing yet?
  3315  02D8  2AD5               	goto	clrloop0	;have we reached the end yet?
  3316  02D9  3400               	retlw	0	;all done for this memory range, return
  3317                           
  3318                           	psect	cstackCOMMON
  3319  0070                     __pcstackCOMMON:	
  3320  0070                     ?_data_getdata:	
  3321  0070                     ?_display_set:	
  3322                           ; 1 bytes @ 0x0
  3323                           
  3324  0070                     ?_timer_Timer0Start:	
  3325                           ; 1 bytes @ 0x0
  3326                           
  3327  0070                     ?_timer_Timer0Reset:	
  3328                           ; 1 bytes @ 0x0
  3329                           
  3330  0070                     ?_timer_IsTimer0Itrpt:	
  3331                           ; 1 bytes @ 0x0
  3332                           
  3333  0070                     ??_timer_IsTimer0Itrpt:	
  3334                           ; 1 bytes @ 0x0
  3335                           
  3336  0070                     ?_uart_Send_byte:	
  3337                           ; 1 bytes @ 0x0
  3338                           
  3339  0070                     ??_uart_Send_byte:	
  3340                           ; 1 bytes @ 0x0
  3341                           
  3342  0070                     ?_led_Blink:	
  3343                           ; 1 bytes @ 0x0
  3344                           
  3345  0070                     ?_ISR_uart_TX:	
  3346                           ; 1 bytes @ 0x0
  3347                           
  3348  0070                     ??_ISR_uart_TX:	
  3349                           ; 1 bytes @ 0x0
  3350                           
  3351  0070                     ?_timer_Timer0Init:	
  3352                           ; 1 bytes @ 0x0
  3353                           
  3354  0070                     ?_uart_init:	
  3355                           ; 1 bytes @ 0x0
  3356                           
  3357  0070                     ?_display_update:	
  3358                           ; 1 bytes @ 0x0
  3359                           
  3360  0070                     ?_led_SetState:	
  3361                           ; 1 bytes @ 0x0
  3362                           
  3363  0070                     ?_key_isPressed:	
  3364                           ; 1 bytes @ 0x0
  3365                           
  3366  0070                     ?_init_env:	
  3367                           ; 1 bytes @ 0x0
  3368                           
  3369  0070                     ?_ISR:	
  3370                           ; 1 bytes @ 0x0
  3371                           
  3372  0070                     ?_main:	
  3373                           ; 1 bytes @ 0x0
  3374                           
  3375  0070                     ?_display_control595_delay:	
  3376                           ; 1 bytes @ 0x0
  3377                           
  3378  0070                     ?_display_write_byte:	
  3379                           ; 1 bytes @ 0x0
  3380                           
  3381  0070                     ?i1_timer_Timer0Reset:	
  3382                           ; 1 bytes @ 0x0
  3383                           
  3384  0070                     ??i1_timer_Timer0Reset:	
  3385                           ; 1 bytes @ 0x0
  3386                           
  3387  0070                     ?i1_data_getdata:	
  3388                           ; 1 bytes @ 0x0
  3389                           
  3390  0070                     ??i1_data_getdata:	
  3391                           ; 1 bytes @ 0x0
  3392                           
  3393  0070                     ?i1_led_SetState:	
  3394                           ; 1 bytes @ 0x0
  3395                           
  3396  0070                     ??i1_led_SetState:	
  3397                           ; 1 bytes @ 0x0
  3398                           
  3399  0070                     ?_timer_Timer0Handdle:	
  3400                           ; 1 bytes @ 0x0
  3401                           
  3402  0070                     ?___lwmod:	
  3403                           ; 2 bytes @ 0x0
  3404                           
  3405  0070                     i1led_SetState@isOn:	
  3406                           ; 2 bytes @ 0x0
  3407                           
  3408  0070                     ___lwmod@divisor:	
  3409                           ; 1 bytes @ 0x0
  3410                           
  3411                           
  3412                           ; 2 bytes @ 0x0
  3413  0070                     	ds	1
  3414  0071                     ??_led_Blink:	
  3415  0071                     uart_Send_byte@byte:	
  3416                           ; 1 bytes @ 0x1
  3417                           
  3418                           
  3419                           ; 1 bytes @ 0x1
  3420  0071                     	ds	1
  3421  0072                     ___lwmod@dividend:	
  3422                           
  3423                           ; 2 bytes @ 0x2
  3424  0072                     	ds	2
  3425  0074                     ??___lwmod:	
  3426                           
  3427                           ; 1 bytes @ 0x4
  3428  0074                     	ds	1
  3429  0075                     ___lwmod@counter:	
  3430                           
  3431                           ; 1 bytes @ 0x5
  3432  0075                     	ds	1
  3433  0076                     ??_key_isPressed:	
  3434                           
  3435                           ; 1 bytes @ 0x6
  3436  0076                     	ds	2
  3437  0078                     key_isPressed@pdata:	
  3438                           
  3439                           ; 1 bytes @ 0x8
  3440  0078                     	ds	1
  3441  0079                     ??_timer_Timer0Handdle:	
  3442  0079                     ??_ISR:	
  3443                           ; 1 bytes @ 0x9
  3444                           
  3445                           
  3446                           ; 1 bytes @ 0x9
  3447  0079                     	ds	2
  3448                           
  3449                           	psect	cstackBANK0
  3450  0036                     __pcstackBANK0:	
  3451  0036                     ??_data_getdata:	
  3452  0036                     ??_display_set:	
  3453                           ; 1 bytes @ 0x0
  3454                           
  3455  0036                     ??_timer_Timer0Start:	
  3456                           ; 1 bytes @ 0x0
  3457                           
  3458  0036                     ??_timer_Timer0Reset:	
  3459                           ; 1 bytes @ 0x0
  3460                           
  3461  0036                     ??_timer_Timer0Init:	
  3462                           ; 1 bytes @ 0x0
  3463                           
  3464  0036                     ??_uart_init:	
  3465                           ; 1 bytes @ 0x0
  3466                           
  3467  0036                     ??_led_SetState:	
  3468                           ; 1 bytes @ 0x0
  3469                           
  3470  0036                     ??_display_control595_delay:	
  3471                           ; 1 bytes @ 0x0
  3472                           
  3473  0036                     ?___awmod:	
  3474                           ; 1 bytes @ 0x0
  3475                           
  3476  0036                     display_set@ison:	
  3477                           ; 2 bytes @ 0x0
  3478                           
  3479  0036                     led_SetState@isOn:	
  3480                           ; 1 bytes @ 0x0
  3481                           
  3482  0036                     ___awmod@divisor:	
  3483                           ; 1 bytes @ 0x0
  3484                           
  3485                           
  3486                           ; 2 bytes @ 0x0
  3487  0036                     	ds	1
  3488  0037                     ??_init_env:	
  3489  0037                     display_control595_delay@times:	
  3490                           ; 1 bytes @ 0x1
  3491                           
  3492                           
  3493                           ; 1 bytes @ 0x1
  3494  0037                     	ds	1
  3495  0038                     ??_display_write_byte:	
  3496  0038                     ___awmod@dividend:	
  3497                           ; 1 bytes @ 0x2
  3498                           
  3499                           
  3500                           ; 2 bytes @ 0x2
  3501  0038                     	ds	1
  3502  0039                     init_env@pdata:	
  3503                           
  3504                           ; 1 bytes @ 0x3
  3505  0039                     	ds	1
  3506  003A                     ??___awmod:	
  3507  003A                     display_write_byte@data:	
  3508                           ; 1 bytes @ 0x4
  3509                           
  3510  003A                     init_env@i:	
  3511                           ; 1 bytes @ 0x4
  3512                           
  3513                           
  3514                           ; 2 bytes @ 0x4
  3515  003A                     	ds	1
  3516  003B                     display_write_byte@i:	
  3517  003B                     ___awmod@counter:	
  3518                           ; 1 bytes @ 0x5
  3519                           
  3520                           
  3521                           ; 1 bytes @ 0x5
  3522  003B                     	ds	1
  3523  003C                     ___awmod@sign:	
  3524                           
  3525                           ; 1 bytes @ 0x6
  3526  003C                     	ds	1
  3527  003D                     ?_display_write_once:	
  3528  003D                     display_write_once@HR:	
  3529                           ; 1 bytes @ 0x7
  3530                           
  3531                           
  3532                           ; 1 bytes @ 0x7
  3533  003D                     	ds	1
  3534  003E                     display_write_once@ML:	
  3535                           
  3536                           ; 1 bytes @ 0x8
  3537  003E                     	ds	1
  3538  003F                     display_write_once@MR:	
  3539                           
  3540                           ; 1 bytes @ 0x9
  3541  003F                     	ds	1
  3542  0040                     ??_display_write_once:	
  3543  0040                     display_write_once@HL:	
  3544                           ; 1 bytes @ 0xA
  3545                           
  3546                           
  3547                           ; 1 bytes @ 0xA
  3548  0040                     	ds	1
  3549  0041                     ??_display_update:	
  3550                           
  3551                           ; 1 bytes @ 0xB
  3552  0041                     	ds	11
  3553  004C                     ??_main:	
  3554                           
  3555                           	psect	maintext
  3556  022D                     __pmaintext:	
  3557                           ; 1 bytes @ 0x16
  3558 ;;
  3559 ;;Main: autosize = 0, tempsize = 0, incstack = 0, save=0
  3560 ;;
  3561 ;; *************** function _main *****************
  3562 ;; Defined at:
  3563 ;;		line 244 in file "main.c"
  3564 ;; Parameters:    Size  Location     Type
  3565 ;;		None
  3566 ;; Auto vars:     Size  Location     Type
  3567 ;;		None
  3568 ;; Return value:  Size  Location     Type
  3569 ;;                  1    wreg      void 
  3570 ;; Registers used:
  3571 ;;		wreg, fsr0l, fsr0h, fsr1l, fsr1h, status,2, status,0, pclath, cstack
  3572 ;; Tracked objects:
  3573 ;;		On entry : B1F/0
  3574 ;;		On exit  : 0/0
  3575 ;;		Unchanged: 0/0
  3576 ;; Data sizes:     COMMON   BANK0   BANK1   BANK2   BANK3   BANK4   BANK5   BANK6   BANK7   BANK8   BANK9  BANK10  BANK1
      +1  BANK12
  3577 ;;      Params:         0       0       0       0       0       0       0       0       0       0       0       0       
      +0       0
  3578 ;;      Locals:         0       0       0       0       0       0       0       0       0       0       0       0       
      +0       0
  3579 ;;      Temps:          0       0       0       0       0       0       0       0       0       0       0       0       
      +0       0
  3580 ;;      Totals:         0       0       0       0       0       0       0       0       0       0       0       0       
      +0       0
  3581 ;;Total ram usage:        0 bytes
  3582 ;; Hardware stack levels required when called:    9
  3583 ;; This function calls:
  3584 ;;		_display_set
  3585 ;;		_display_update
  3586 ;;		_init_env
  3587 ;;		_led_SetState
  3588 ;;		_timer_Timer0Init
  3589 ;;		_timer_Timer0Start
  3590 ;;		_uart_init
  3591 ;; This function is called by:
  3592 ;;		Startup code after reset
  3593 ;; This function uses a non-reentrant model
  3594 ;;
  3595                           
  3596                           
  3597                           ;psect for function _main
  3598  022D                     _main:	
  3599                           
  3600                           ;main.c: 246:     static u16 i = 0;;main.c: 247:     static u8 cnt = 0;;main.c: 251:    
      +                           init_env();
  3601                           
  3602                           ;incstack = 0
  3603                           ; Regs used in _main: [wreg-fsr1h+status,2+status,0+pclath+cstack]
  3604  022D  3180  20C1  3182   	fcall	_init_env
  3605                           
  3606                           ;main.c: 254:     timer_Timer0Init();
  3607  0230  3182  227A  3182   	fcall	_timer_Timer0Init
  3608                           
  3609                           ;main.c: 255:     timer_Timer0Start();
  3610  0233  3182  22E4  3182   	fcall	_timer_Timer0Start
  3611                           
  3612                           ;main.c: 266:     uart_init();
  3613  0236  3182  224E  3182   	fcall	_uart_init
  3614                           
  3615                           ;main.c: 269:     display_update();
  3616  0239  3180  204F  3182   	fcall	_display_update
  3617                           
  3618                           ;main.c: 270:     led_SetState(FALSE);
  3619  023C  3000               	movlw	0
  3620  023D  3182  22AC  3182   	fcall	_led_SetState
  3621  0240                     l2757:	
  3622                           ;main.c: 272:     while(1)
  3623                           
  3624                           
  3625                           ;main.c: 273:     {;main.c: 274:         if(i++ == 65535)
  3626  0240  3001               	movlw	1
  3627  0241  0020               	movlb	0	; select bank0
  3628  0242  07A6               	addwf	main@i,f
  3629  0243  3000               	movlw	0
  3630  0244  3DA7               	addwfc	main@i+1,f
  3631  0245  0826               	movf	main@i,w
  3632  0246  0427               	iorwf	main@i+1,w
  3633  0247  1D03               	btfss	3,2
  3634  0248  2A40               	goto	l2757
  3635                           
  3636                           ;main.c: 275:         {;main.c: 277:             display_set(FALSE);
  3637  0249  3000               	movlw	0
  3638  024A  3182  22CC  3182   	fcall	_display_set
  3639                           
  3640                           ;main.c: 280:     }
  3641                           
  3642                           ;main.c: 279:         }
  3643  024D  2A40               	goto	l2757
  3644  024E                     __end_of_main:	
  3645                           ;main.c: 281:     return;
  3646                           
  3647                           
  3648                           	psect	text1
  3649  024E                     __ptext1:	
  3650 ;; *************** function _uart_init *****************
  3651 ;; Defined at:
  3652 ;;		line 14 in file "uart.c"
  3653 ;; Parameters:    Size  Location     Type
  3654 ;;		None
  3655 ;; Auto vars:     Size  Location     Type
  3656 ;;		None
  3657 ;; Return value:  Size  Location     Type
  3658 ;;                  1    wreg      void 
  3659 ;; Registers used:
  3660 ;;		wreg, status,2
  3661 ;; Tracked objects:
  3662 ;;		On entry : 0/0
  3663 ;;		On exit  : 0/0
  3664 ;;		Unchanged: 0/0
  3665 ;; Data sizes:     COMMON   BANK0   BANK1   BANK2   BANK3   BANK4   BANK5   BANK6   BANK7   BANK8   BANK9  BANK10  BANK1
      +1  BANK12
  3666 ;;      Params:         0       0       0       0       0       0       0       0       0       0       0       0       
      +0       0
  3667 ;;      Locals:         0       0       0       0       0       0       0       0       0       0       0       0       
      +0       0
  3668 ;;      Temps:          0       0       0       0       0       0       0       0       0       0       0       0       
      +0       0
  3669 ;;      Totals:         0       0       0       0       0       0       0       0       0       0       0       0       
      +0       0
  3670 ;;Total ram usage:        0 bytes
  3671 ;; Hardware stack levels used:    1
  3672 ;; Hardware stack levels required when called:    5
  3673 ;; This function calls:
  3674 ;;		Nothing
  3675 ;; This function is called by:
  3676 ;;		_main
  3677 ;; This function uses a non-reentrant model
  3678 ;;
  3679                           
  3680                           
  3681                           ;psect for function _uart_init
  3682  024E                     _uart_init:	
  3683                           
  3684                           ;uart.c: 17:     TXSEL = 0;
  3685                           
  3686                           ;incstack = 0
  3687                           ; Regs used in _uart_init: [wreg+status,2]
  3688  024E  0022               	movlb	2	; select bank2
  3689  024F  111D               	bcf	29,2	;volatile
  3690                           
  3691                           ;uart.c: 18:     RXSEL = 0;
  3692  0250  109D               	bcf	29,1	;volatile
  3693                           
  3694                           ;uart.c: 19:     TRISCbits.TRISC7 = 1;
  3695  0251  0021               	movlb	1	; select bank1
  3696  0252  178E               	bsf	14,7	;volatile
  3697                           
  3698                           ;uart.c: 20:     TRISCbits.TRISC6 = 0;
  3699  0253  130E               	bcf	14,6	;volatile
  3700                           
  3701                           ;uart.c: 21:     WPUCbits.WPUC7 = 0;
  3702  0254  0024               	movlb	4	; select bank4
  3703  0255  138E               	bcf	14,7	;volatile
  3704                           
  3705                           ;uart.c: 22:     WPUCbits.WPUC6 = 0;
  3706  0256  130E               	bcf	14,6	;volatile
  3707                           
  3708                           ;uart.c: 26:     SYNC = 0;
  3709  0257  0023               	movlb	3	; select bank3
  3710  0258  121E               	bcf	30,4	;volatile
  3711                           
  3712                           ;uart.c: 27:     BRGH = 1;
  3713  0259  151E               	bsf	30,2	;volatile
  3714                           
  3715                           ;uart.c: 28:     BRG16 = 1;
  3716  025A  159F               	bsf	31,3	;volatile
  3717                           
  3718                           ;uart.c: 32:     SPBRGH = 0x00;
  3719  025B  019C               	clrf	28	;volatile
  3720                           
  3721                           ;uart.c: 33:     SPBRGL = 23;
  3722  025C  3017               	movlw	23
  3723  025D  009B               	movwf	27	;volatile
  3724                           
  3725                           ;uart.c: 36:     TXEN = 1;
  3726  025E  169E               	bsf	30,5	;volatile
  3727                           
  3728                           ;uart.c: 37:     SYNC = 0;
  3729  025F  121E               	bcf	30,4	;volatile
  3730                           
  3731                           ;uart.c: 38:     SPEN = 1;
  3732  0260  179D               	bsf	29,7	;volatile
  3733                           
  3734                           ;uart.c: 41:     TXIE = 1;
  3735  0261  0021               	movlb	1	; select bank1
  3736  0262  1611               	bsf	17,4	;volatile
  3737                           
  3738                           ;uart.c: 42:     GIE = 1;
  3739  0263  178B               	bsf	11,7	;volatile
  3740                           
  3741                           ;uart.c: 43:     PEIE = 1;
  3742  0264  170B               	bsf	11,6	;volatile
  3743                           
  3744                           ;uart.c: 46:     CREN = 1;
  3745  0265  0023               	movlb	3	; select bank3
  3746  0266  161D               	bsf	29,4	;volatile
  3747                           
  3748                           ;uart.c: 49:     RCIE = 1;
  3749  0267  0021               	movlb	1	; select bank1
  3750  0268  1691               	bsf	17,5	;volatile
  3751  0269  0008               	return
  3752  026A                     __end_of_uart_init:	
  3753                           
  3754                           	psect	text2
  3755  02E4                     __ptext2:	
  3756 ;; *************** function _timer_Timer0Start *****************
  3757 ;; Defined at:
  3758 ;;		line 96 in file "timer.c"
  3759 ;; Parameters:    Size  Location     Type
  3760 ;;		None
  3761 ;; Auto vars:     Size  Location     Type
  3762 ;;		None
  3763 ;; Return value:  Size  Location     Type
  3764 ;;                  1    wreg      void 
  3765 ;; Registers used:
  3766 ;;		wreg, status,2, status,0, pclath, cstack
  3767 ;; Tracked objects:
  3768 ;;		On entry : 0/0
  3769 ;;		On exit  : 0/0
  3770 ;;		Unchanged: 0/0
  3771 ;; Data sizes:     COMMON   BANK0   BANK1   BANK2   BANK3   BANK4   BANK5   BANK6   BANK7   BANK8   BANK9  BANK10  BANK1
      +1  BANK12
  3772 ;;      Params:         0       0       0       0       0       0       0       0       0       0       0       0       
      +0       0
  3773 ;;      Locals:         0       0       0       0       0       0       0       0       0       0       0       0       
      +0       0
  3774 ;;      Temps:          0       0       0       0       0       0       0       0       0       0       0       0       
      +0       0
  3775 ;;      Totals:         0       0       0       0       0       0       0       0       0       0       0       0       
      +0       0
  3776 ;;Total ram usage:        0 bytes
  3777 ;; Hardware stack levels used:    1
  3778 ;; Hardware stack levels required when called:    6
  3779 ;; This function calls:
  3780 ;;		_timer_Timer0Reset
  3781 ;; This function is called by:
  3782 ;;		_main
  3783 ;;		_tmp_change
  3784 ;; This function uses a non-reentrant model
  3785 ;;
  3786                           
  3787                           
  3788                           ;psect for function _timer_Timer0Start
  3789  02E4                     _timer_Timer0Start:	
  3790                           
  3791                           ;timer.c: 98:     timer_Timer0Reset();
  3792                           
  3793                           ;incstack = 0
  3794                           ; Regs used in _timer_Timer0Start: [wreg+status,2+status,0+pclath+cstack]
  3795  02E4  3182  22DA         	fcall	_timer_Timer0Reset
  3796                           
  3797                           ;timer.c: 99:     INTCONbits.TMR0IE = 0b1;
  3798  02E6  168B               	bsf	11,5	;volatile
  3799  02E7  0008               	return
  3800  02E8                     __end_of_timer_Timer0Start:	
  3801                           
  3802                           	psect	text3
  3803  02DA                     __ptext3:	
  3804 ;; *************** function _timer_Timer0Reset *****************
  3805 ;; Defined at:
  3806 ;;		line 91 in file "timer.c"
  3807 ;; Parameters:    Size  Location     Type
  3808 ;;		None
  3809 ;; Auto vars:     Size  Location     Type
  3810 ;;		None
  3811 ;; Return value:  Size  Location     Type
  3812 ;;                  1    wreg      void 
  3813 ;; Registers used:
  3814 ;;		wreg
  3815 ;; Tracked objects:
  3816 ;;		On entry : 0/0
  3817 ;;		On exit  : 0/0
  3818 ;;		Unchanged: 0/0
  3819 ;; Data sizes:     COMMON   BANK0   BANK1   BANK2   BANK3   BANK4   BANK5   BANK6   BANK7   BANK8   BANK9  BANK10  BANK1
      +1  BANK12
  3820 ;;      Params:         0       0       0       0       0       0       0       0       0       0       0       0       
      +0       0
  3821 ;;      Locals:         0       0       0       0       0       0       0       0       0       0       0       0       
      +0       0
  3822 ;;      Temps:          0       0       0       0       0       0       0       0       0       0       0       0       
      +0       0
  3823 ;;      Totals:         0       0       0       0       0       0       0       0       0       0       0       0       
      +0       0
  3824 ;;Total ram usage:        0 bytes
  3825 ;; Hardware stack levels used:    1
  3826 ;; Hardware stack levels required when called:    5
  3827 ;; This function calls:
  3828 ;;		Nothing
  3829 ;; This function is called by:
  3830 ;;		_timer_Timer0Start
  3831 ;;		_tmp_change
  3832 ;; This function uses a non-reentrant model
  3833 ;;
  3834                           
  3835                           
  3836                           ;psect for function _timer_Timer0Reset
  3837  02DA                     _timer_Timer0Reset:	
  3838                           
  3839                           ;timer.c: 93:     INTCONbits.TMR0IF = 0;
  3840                           
  3841                           ;incstack = 0
  3842                           ; Regs used in _timer_Timer0Reset: [wreg]
  3843  02DA  110B               	bcf	11,2	;volatile
  3844                           
  3845                           ;timer.c: 94:     TMR0 = (217 + 14);
  3846  02DB  30E7               	movlw	231
  3847  02DC  0020               	movlb	0	; select bank0
  3848  02DD  0095               	movwf	21	;volatile
  3849  02DE  0008               	return
  3850  02DF                     __end_of_timer_Timer0Reset:	
  3851                           
  3852                           	psect	text4
  3853  027A                     __ptext4:	
  3854 ;; *************** function _timer_Timer0Init *****************
  3855 ;; Defined at:
  3856 ;;		line 63 in file "timer.c"
  3857 ;; Parameters:    Size  Location     Type
  3858 ;;		None
  3859 ;; Auto vars:     Size  Location     Type
  3860 ;;		None
  3861 ;; Return value:  Size  Location     Type
  3862 ;;                  1    wreg      void 
  3863 ;; Registers used:
  3864 ;;		wreg, status,2, status,0
  3865 ;; Tracked objects:
  3866 ;;		On entry : 0/0
  3867 ;;		On exit  : 0/0
  3868 ;;		Unchanged: 0/0
  3869 ;; Data sizes:     COMMON   BANK0   BANK1   BANK2   BANK3   BANK4   BANK5   BANK6   BANK7   BANK8   BANK9  BANK10  BANK1
      +1  BANK12
  3870 ;;      Params:         0       0       0       0       0       0       0       0       0       0       0       0       
      +0       0
  3871 ;;      Locals:         0       0       0       0       0       0       0       0       0       0       0       0       
      +0       0
  3872 ;;      Temps:          0       0       0       0       0       0       0       0       0       0       0       0       
      +0       0
  3873 ;;      Totals:         0       0       0       0       0       0       0       0       0       0       0       0       
      +0       0
  3874 ;;Total ram usage:        0 bytes
  3875 ;; Hardware stack levels used:    1
  3876 ;; Hardware stack levels required when called:    5
  3877 ;; This function calls:
  3878 ;;		Nothing
  3879 ;; This function is called by:
  3880 ;;		_main
  3881 ;; This function uses a non-reentrant model
  3882 ;;
  3883                           
  3884                           
  3885                           ;psect for function _timer_Timer0Init
  3886  027A                     _timer_Timer0Init:	
  3887                           
  3888                           ;timer.c: 66:     INTCONbits.GIE = 0b1;
  3889                           
  3890                           ;incstack = 0
  3891                           ; Regs used in _timer_Timer0Init: [wreg+status,2+status,0]
  3892  027A  178B               	bsf	11,7	;volatile
  3893                           
  3894                           ;timer.c: 69:     INTCONbits.TMR0IE = 0b0;
  3895  027B  128B               	bcf	11,5	;volatile
  3896                           
  3897                           ;timer.c: 75:     OPTION_REGbits.PSA = 0;
  3898  027C  0021               	movlb	1	; select bank1
  3899  027D  1195               	bcf	21,3	;volatile
  3900                           
  3901                           ;timer.c: 76:     OPTION_REGbits.TMR0CS = 0;
  3902  027E  1295               	bcf	21,5	;volatile
  3903                           
  3904                           ;timer.c: 77:     OPTION_REGbits.PS = 4;
  3905  027F  0815               	movf	21,w	;volatile
  3906  0280  39F8               	andlw	-8
  3907  0281  3804               	iorlw	4
  3908  0282  0095               	movwf	21	;volatile
  3909                           
  3910                           ;timer.c: 78:     TMR0 = (217 + 14);
  3911  0283  30E7               	movlw	231
  3912  0284  0020               	movlb	0	; select bank0
  3913  0285  0095               	movwf	21	;volatile
  3914  0286  0008               	return
  3915  0287                     __end_of_timer_Timer0Init:	
  3916                           
  3917                           	psect	text5
  3918  02AC                     __ptext5:	
  3919 ;; *************** function _led_SetState *****************
  3920 ;; Defined at:
  3921 ;;		line 107 in file "hardware.c"
  3922 ;; Parameters:    Size  Location     Type
  3923 ;;  isOn            1    wreg     unsigned char 
  3924 ;; Auto vars:     Size  Location     Type
  3925 ;;  isOn            1    0[BANK0 ] unsigned char 
  3926 ;; Return value:  Size  Location     Type
  3927 ;;                  1    wreg      unsigned char 
  3928 ;; Registers used:
  3929 ;;		wreg, status,2, status,0
  3930 ;; Tracked objects:
  3931 ;;		On entry : 0/0
  3932 ;;		On exit  : 0/0
  3933 ;;		Unchanged: 0/0
  3934 ;; Data sizes:     COMMON   BANK0   BANK1   BANK2   BANK3   BANK4   BANK5   BANK6   BANK7   BANK8   BANK9  BANK10  BANK1
      +1  BANK12
  3935 ;;      Params:         0       0       0       0       0       0       0       0       0       0       0       0       
      +0       0
  3936 ;;      Locals:         0       1       0       0       0       0       0       0       0       0       0       0       
      +0       0
  3937 ;;      Temps:          0       0       0       0       0       0       0       0       0       0       0       0       
      +0       0
  3938 ;;      Totals:         0       1       0       0       0       0       0       0       0       0       0       0       
      +0       0
  3939 ;;Total ram usage:        1 bytes
  3940 ;; Hardware stack levels used:    1
  3941 ;; Hardware stack levels required when called:    5
  3942 ;; This function calls:
  3943 ;;		Nothing
  3944 ;; This function is called by:
  3945 ;;		_main
  3946 ;;		_capture_handdle
  3947 ;; This function uses a non-reentrant model
  3948 ;;
  3949                           
  3950                           
  3951                           ;psect for function _led_SetState
  3952  02AC                     _led_SetState:	
  3953                           
  3954                           ;incstack = 0
  3955                           ; Regs used in _led_SetState: [wreg+status,2+status,0]
  3956                           ;led_SetState@isOn stored from wreg
  3957  02AC  0020               	movlb	0	; select bank0
  3958  02AD  00B6               	movwf	led_SetState@isOn
  3959                           
  3960                           ;hardware.c: 107: u8 led_SetState(u8 isOn);hardware.c: 108: {;hardware.c: 109:     LATBb
      +                          its.LATB3 = (isOn)? LED_STATE_ON : LED_STATE_OFF;
  3961  02AE  0836               	movf	led_SetState@isOn,w
  3962  02AF  1D03               	btfss	3,2
  3963  02B0  2AB4               	goto	u1660
  3964  02B1  0022               	movlb	2	; select bank2
  3965  02B2  158D               	bsf	13,3	;volatile
  3966  02B3  0008               	return
  3967  02B4                     u1660:	
  3968  02B4  0022               	movlb	2	; select bank2
  3969  02B5  118D               	bcf	13,3	;volatile
  3970  02B6  0008               	return
  3971  02B7                     __end_of_led_SetState:	
  3972                           ;hardware.c: 110:     return 0;;	Return value of _led_SetState is never used
  3973                           
  3974                           
  3975                           	psect	text6
  3976  00C1                     __ptext6:	
  3977 ;; *************** function _init_env *****************
  3978 ;; Defined at:
  3979 ;;		line 44 in file "main.c"
  3980 ;; Parameters:    Size  Location     Type
  3981 ;;		None
  3982 ;; Auto vars:     Size  Location     Type
  3983 ;;  i               2    4[BANK0 ] int 
  3984 ;;  pdata           1    3[BANK0 ] PTR volatile struct .
  3985 ;;		 -> g_data(39), 
  3986 ;; Return value:  Size  Location     Type
  3987 ;;                  1    wreg      void 
  3988 ;; Registers used:
  3989 ;;		wreg, fsr1l, fsr1h, status,2, status,0, pclath, cstack
  3990 ;; Tracked objects:
  3991 ;;		On entry : 0/0
  3992 ;;		On exit  : 0/0
  3993 ;;		Unchanged: 0/0
  3994 ;; Data sizes:     COMMON   BANK0   BANK1   BANK2   BANK3   BANK4   BANK5   BANK6   BANK7   BANK8   BANK9  BANK10  BANK1
      +1  BANK12
  3995 ;;      Params:         0       0       0       0       0       0       0       0       0       0       0       0       
      +0       0
  3996 ;;      Locals:         0       3       0       0       0       0       0       0       0       0       0       0       
      +0       0
  3997 ;;      Temps:          0       2       0       0       0       0       0       0       0       0       0       0       
      +0       0
  3998 ;;      Totals:         0       5       0       0       0       0       0       0       0       0       0       0       
      +0       0
  3999 ;;Total ram usage:        5 bytes
  4000 ;; Hardware stack levels used:    1
  4001 ;; Hardware stack levels required when called:    6
  4002 ;; This function calls:
  4003 ;;		_data_getdata
  4004 ;;		_display_set
  4005 ;; This function is called by:
  4006 ;;		_main
  4007 ;; This function uses a non-reentrant model
  4008 ;;
  4009                           
  4010                           
  4011                           ;psect for function _init_env
  4012  00C1                     _init_env:	
  4013                           
  4014                           ;main.c: 45:     IOCCP = 0;
  4015                           
  4016                           ;incstack = 0
  4017                           ; Regs used in _init_env: [wreg+fsr1l+fsr1h+status,2+status,0+pclath+cstack]
  4018  00C1  3182  22EF  3180   	fcall	_data_getdata
  4019  00C4  0020               	movlb	0	; select bank0
  4020  00C5  00B7               	movwf	??_init_env
  4021  00C6  0837               	movf	??_init_env,w
  4022  00C7  00B9               	movwf	init_env@pdata
  4023                           
  4024                           ;main.c: 51:     TRISCbits.TRISC5 = 1;
  4025  00C8  178B               	bsf	11,7	;volatile
  4026                           
  4027                           ;main.c: 58: 
  4028  00C9  0021               	movlb	1	; select bank1
  4029  00CA  0819               	movf	25,w	;volatile
  4030  00CB  39FC               	andlw	-4
  4031  00CC  3802               	iorlw	2
  4032  00CD  0099               	movwf	25	;volatile
  4033                           
  4034                           ;main.c: 62: 
  4035  00CE  0819               	movf	25,w	;volatile
  4036  00CF  3987               	andlw	-121
  4037  00D0  3858               	iorlw	88
  4038  00D1  0099               	movwf	25	;volatile
  4039                           
  4040                           ;main.c: 70: 
  4041  00D2  1395               	bcf	21,7	;volatile
  4042                           
  4043                           ;main.c: 72:     TRISCbits.TRISC0 = 1;
  4044  00D3  018C               	clrf	12	;volatile
  4045                           
  4046                           ;main.c: 73:     WPUCbits.WPUC0 = 1;
  4047  00D4  0022               	movlb	2	; select bank2
  4048  00D5  018C               	clrf	12	;volatile
  4049                           
  4050                           ;main.c: 74: 
  4051  00D6  0024               	movlb	4	; select bank4
  4052  00D7  018C               	clrf	12	;volatile
  4053                           
  4054                           ;main.c: 75: 
  4055  00D8  0027               	movlb	7	; select bank7
  4056  00D9  0191               	clrf	17	;volatile
  4057                           
  4058                           ;main.c: 76: 
  4059  00DA  0192               	clrf	18	;volatile
  4060                           
  4061                           ;main.c: 78: 
  4062  00DB  0021               	movlb	1	; select bank1
  4063  00DC  018D               	clrf	13	;volatile
  4064                           
  4065                           ;main.c: 79: 
  4066  00DD  0022               	movlb	2	; select bank2
  4067  00DE  018D               	clrf	13	;volatile
  4068                           
  4069                           ;main.c: 80:     display_set(TRUE);
  4070  00DF  0024               	movlb	4	; select bank4
  4071  00E0  018D               	clrf	13	;volatile
  4072                           
  4073                           ;main.c: 81: }
  4074  00E1  0027               	movlb	7	; select bank7
  4075  00E2  0194               	clrf	20	;volatile
  4076                           
  4077                           ;main.c: 82: 
  4078  00E3  0195               	clrf	21	;volatile
  4079                           
  4080                           ;main.c: 84: void tmp_change(void)
  4081  00E4  0021               	movlb	1	; select bank1
  4082  00E5  018E               	clrf	14	;volatile
  4083                           
  4084                           ;main.c: 85: {
  4085  00E6  0022               	movlb	2	; select bank2
  4086  00E7  018E               	clrf	14	;volatile
  4087                           
  4088                           ;main.c: 86:     static u8 history_key = 0;
  4089  00E8  3001               	movlw	1
  4090  00E9  0024               	movlb	4	; select bank4
  4091  00EA  008E               	movwf	14	;volatile
  4092                           
  4093                           ;main.c: 87:     static u16 key_time_cnt = 0;
  4094  00EB  0027               	movlb	7	; select bank7
  4095  00EC  0197               	clrf	23	;volatile
  4096                           
  4097                           ;main.c: 88:     G_DATA *pdata = data_getdata();
  4098  00ED  0198               	clrf	24	;volatile
  4099                           
  4100                           ;main.c: 93:     if( pdata->g_isDecoding == FALSE && ((pdata->g_flg_switch == TRUE)||(pd
      +                          ata->cnt_update >= 30)) )
  4101  00EE  0021               	movlb	1	; select bank1
  4102  00EF  168E               	bsf	14,5	;volatile
  4103                           
  4104                           ;main.c: 94: 
  4105  00F0  0024               	movlb	4	; select bank4
  4106  00F1  168E               	bsf	14,5	;volatile
  4107                           
  4108                           ;main.c: 96: 
  4109  00F2  0021               	movlb	1	; select bank1
  4110  00F3  148E               	bsf	14,1	;volatile
  4111                           
  4112                           ;main.c: 97:         pdata->g_find_recv_start = FALSE;
  4113  00F4  0024               	movlb	4	; select bank4
  4114  00F5  108E               	bcf	14,1	;volatile
  4115                           
  4116                           ;main.c: 98:         pdata->g_isDecoding = TRUE;
  4117  00F6  0027               	movlb	7	; select bank7
  4118  00F7  1497               	bsf	23,1	;volatile
  4119                           
  4120                           ;main.c: 101:         pdata->g_recv_count = CODE_P0;
  4121  00F8  0020               	movlb	0	; select bank0
  4122  00F9  01BA               	clrf	init_env@i
  4123  00FA  01BB               	clrf	init_env@i+1
  4124  00FB  083B               	movf	init_env@i+1,w
  4125  00FC  3A80               	xorlw	128
  4126  00FD  00B7               	movwf	??_init_env
  4127  00FE  3080               	movlw	128
  4128  00FF  0237               	subwf	??_init_env,w
  4129  0100  1D03               	skipz
  4130  0101  2904               	goto	u1635
  4131  0102  3014               	movlw	20
  4132  0103  023A               	subwf	init_env@i,w
  4133  0104                     u1635:	
  4134  0104  1803               	btfsc	3,0
  4135  0105  2921               	goto	l86
  4136  0106                     l2291:	
  4137                           
  4138                           ;main.c: 102:         PORTCbits.RC2 = BPC_PWR_ON;
  4139  0106  3005               	movlw	5
  4140  0107  0020               	movlb	0	; select bank0
  4141  0108  00B7               	movwf	??_init_env
  4142  0109  083A               	movf	init_env@i,w
  4143  010A  3E0D               	addlw	13
  4144  010B  0739               	addwf	init_env@pdata,w
  4145  010C  00B8               	movwf	??_init_env+1
  4146  010D  0838               	movf	??_init_env+1,w
  4147  010E  0086               	movwf	6
  4148  010F  0187               	clrf	7
  4149  0110  0837               	movf	??_init_env,w
  4150  0111  0081               	movwf	1
  4151                           
  4152                           ;main.c: 103: 
  4153  0112  3001               	movlw	1
  4154  0113  07BA               	addwf	init_env@i,f
  4155  0114  3000               	movlw	0
  4156  0115  3DBB               	addwfc	init_env@i+1,f
  4157  0116  083B               	movf	init_env@i+1,w
  4158  0117  3A80               	xorlw	128
  4159  0118  00B7               	movwf	??_init_env
  4160  0119  3080               	movlw	128
  4161  011A  0237               	subwf	??_init_env,w
  4162  011B  1D03               	skipz
  4163  011C  291F               	goto	u1645
  4164  011D  3014               	movlw	20
  4165  011E  023A               	subwf	init_env@i,w
  4166  011F                     u1645:	
  4167  011F  1C03               	skipc
  4168  0120  2906               	goto	l2291
  4169  0121                     l86:	
  4170                           
  4171                           ;main.c: 108:     else if(pdata->g_isDecoding == TRUE && IOCCFbits.IOCCF1 == TRUE && TRU
      +                          E == pdata->g_find_recv_start)
  4172  0121  0022               	movlb	2	; select bank2
  4173  0122  110D               	bcf	13,2	;volatile
  4174                           
  4175                           ;main.c: 111:         {
  4176  0123  0020               	movlb	0	; select bank0
  4177  0124  110E               	bcf	14,2	;volatile
  4178                           
  4179                           ;main.c: 114:         timer_Timer0Start();
  4180  0125  0021               	movlb	1	; select bank1
  4181  0126  140E               	bsf	14,0	;volatile
  4182                           
  4183                           ;main.c: 115:     }
  4184  0127  0024               	movlb	4	; select bank4
  4185  0128  140E               	bsf	14,0	;volatile
  4186                           
  4187                           ;main.c: 122: 
  4188  0129  3001               	movlw	1
  4189  012A  3182  22CC         	fcall	_display_set
  4190  012C  0008               	return
  4191  012D                     __end_of_init_env:	
  4192                           
  4193                           	psect	text7
  4194  02CC                     __ptext7:	
  4195 ;; *************** function _display_set *****************
  4196 ;; Defined at:
  4197 ;;		line 14 in file "display.c"
  4198 ;; Parameters:    Size  Location     Type
  4199 ;;  ison            1    wreg     enum E5222
  4200 ;; Auto vars:     Size  Location     Type
  4201 ;;  ison            1    0[BANK0 ] enum E5222
  4202 ;; Return value:  Size  Location     Type
  4203 ;;                  1    wreg      void 
  4204 ;; Registers used:
  4205 ;;		wreg, status,0
  4206 ;; Tracked objects:
  4207 ;;		On entry : 0/0
  4208 ;;		On exit  : 0/0
  4209 ;;		Unchanged: 0/0
  4210 ;; Data sizes:     COMMON   BANK0   BANK1   BANK2   BANK3   BANK4   BANK5   BANK6   BANK7   BANK8   BANK9  BANK10  BANK1
      +1  BANK12
  4211 ;;      Params:         0       0       0       0       0       0       0       0       0       0       0       0       
      +0       0
  4212 ;;      Locals:         0       1       0       0       0       0       0       0       0       0       0       0       
      +0       0
  4213 ;;      Temps:          0       0       0       0       0       0       0       0       0       0       0       0       
      +0       0
  4214 ;;      Totals:         0       1       0       0       0       0       0       0       0       0       0       0       
      +0       0
  4215 ;;Total ram usage:        1 bytes
  4216 ;; Hardware stack levels used:    1
  4217 ;; Hardware stack levels required when called:    5
  4218 ;; This function calls:
  4219 ;;		Nothing
  4220 ;; This function is called by:
  4221 ;;		_init_env
  4222 ;;		_main
  4223 ;; This function uses a non-reentrant model
  4224 ;;
  4225                           
  4226                           
  4227                           ;psect for function _display_set
  4228  02CC                     _display_set:	
  4229                           
  4230                           ;incstack = 0
  4231                           ; Regs used in _display_set: [wreg+status,0]
  4232                           ;display_set@ison stored from wreg
  4233  02CC  0020               	movlb	0	; select bank0
  4234  02CD  00B6               	movwf	display_set@ison
  4235                           
  4236                           ;display.c: 14: void display_set(BOOL ison);display.c: 15: {;display.c: 16:     PORTAbit
      +                          s.RA0 = ison;
  4237  02CE  0C36               	rrf	display_set@ison,w
  4238  02CF  1C03               	skipc
  4239  02D0  100C               	bcf	12,0	;volatile
  4240  02D1  1803               	skipnc
  4241  02D2  140C               	bsf	12,0	;volatile
  4242  02D3  0008               	return
  4243  02D4                     __end_of_display_set:	
  4244                           
  4245                           	psect	text8
  4246  02EF                     __ptext8:	
  4247 ;; *************** function _data_getdata *****************
  4248 ;; Defined at:
  4249 ;;		line 9 in file "data.c"
  4250 ;; Parameters:    Size  Location     Type
  4251 ;;		None
  4252 ;; Auto vars:     Size  Location     Type
  4253 ;;		None
  4254 ;; Return value:  Size  Location     Type
  4255 ;;                  1    wreg      PTR volatile struct .
  4256 ;; Registers used:
  4257 ;;		wreg
  4258 ;; Tracked objects:
  4259 ;;		On entry : 0/0
  4260 ;;		On exit  : 0/0
  4261 ;;		Unchanged: 0/0
  4262 ;; Data sizes:     COMMON   BANK0   BANK1   BANK2   BANK3   BANK4   BANK5   BANK6   BANK7   BANK8   BANK9  BANK10  BANK1
      +1  BANK12
  4263 ;;      Params:         0       0       0       0       0       0       0       0       0       0       0       0       
      +0       0
  4264 ;;      Locals:         0       0       0       0       0       0       0       0       0       0       0       0       
      +0       0
  4265 ;;      Temps:          0       0       0       0       0       0       0       0       0       0       0       0       
      +0       0
  4266 ;;      Totals:         0       0       0       0       0       0       0       0       0       0       0       0       
      +0       0
  4267 ;;Total ram usage:        0 bytes
  4268 ;; Hardware stack levels used:    1
  4269 ;; Hardware stack levels required when called:    5
  4270 ;; This function calls:
  4271 ;;		Nothing
  4272 ;; This function is called by:
  4273 ;;		_init_env
  4274 ;;		_tmp_change
  4275 ;;		_update_time
  4276 ;;		_capture_handdle
  4277 ;;		_check_err
  4278 ;;		_receive_decode
  4279 ;; This function uses a non-reentrant model
  4280 ;;
  4281                           
  4282                           
  4283                           ;psect for function _data_getdata
  4284  02EF                     _data_getdata:	
  4285                           
  4286                           ;data.c: 11:     return &g_data;
  4287                           
  4288                           ;incstack = 0
  4289                           ; Regs used in _data_getdata: [wreg]
  4290  02EF  30A0               	movlw	(low (_g_data| 0))& (0+255)
  4291  02F0  0008               	return
  4292  02F1                     __end_of_data_getdata:	
  4293                           
  4294                           	psect	text9
  4295  004F                     __ptext9:	
  4296 ;; *************** function _display_update *****************
  4297 ;; Defined at:
  4298 ;;		line 72 in file "display.c"
  4299 ;; Parameters:    Size  Location     Type
  4300 ;;		None
  4301 ;; Auto vars:     Size  Location     Type
  4302 ;;		None
  4303 ;; Return value:  Size  Location     Type
  4304 ;;                  1    wreg      void 
  4305 ;; Registers used:
  4306 ;;		wreg, fsr0l, fsr0h, status,2, status,0, pclath, cstack
  4307 ;; Tracked objects:
  4308 ;;		On entry : 0/0
  4309 ;;		On exit  : 0/0
  4310 ;;		Unchanged: 0/0
  4311 ;; Data sizes:     COMMON   BANK0   BANK1   BANK2   BANK3   BANK4   BANK5   BANK6   BANK7   BANK8   BANK9  BANK10  BANK1
      +1  BANK12
  4312 ;;      Params:         0       0       0       0       0       0       0       0       0       0       0       0       
      +0       0
  4313 ;;      Locals:         0       0       0       0       0       0       0       0       0       0       0       0       
      +0       0
  4314 ;;      Temps:          0      11       0       0       0       0       0       0       0       0       0       0       
      +0       0
  4315 ;;      Totals:         0      11       0       0       0       0       0       0       0       0       0       0       
      +0       0
  4316 ;;Total ram usage:       11 bytes
  4317 ;; Hardware stack levels used:    1
  4318 ;; Hardware stack levels required when called:    8
  4319 ;; This function calls:
  4320 ;;		___awmod
  4321 ;;		_display_write_once
  4322 ;; This function is called by:
  4323 ;;		_main
  4324 ;;		_update_time
  4325 ;;		_receive_decode
  4326 ;; This function uses a non-reentrant model
  4327 ;;
  4328                           
  4329                           
  4330                           ;psect for function _display_update
  4331  004F                     _display_update:	
  4332                           
  4333                           ;display.c: 85:     static u8 i=0;;display.c: 89:     display_write_once(segmcode[i%10],
      +                           segmcode[i%10], segmcode[i%10], segmcode[i%10]);
  4334                           
  4335                           ;incstack = 0
  4336                           ; Regs used in _display_update: [wreg-fsr0h+status,2+status,0+pclath+cstack]
  4337  004F  300A               	movlw	10
  4338  0050  0020               	movlb	0	; select bank0
  4339  0051  00B6               	movwf	___awmod@divisor
  4340  0052  3000               	movlw	0
  4341  0053  00B7               	movwf	___awmod@divisor+1
  4342  0054  082F               	movf	display_update@i,w
  4343  0055  00C1               	movwf	??_display_update
  4344  0056  01C2               	clrf	??_display_update+1
  4345  0057  0841               	movf	??_display_update,w
  4346  0058  00B8               	movwf	___awmod@dividend
  4347  0059  0842               	movf	??_display_update+1,w
  4348  005A  00B9               	movwf	___awmod@dividend+1
  4349  005B  3181  212D  3180   	fcall	___awmod
  4350  005E  0020               	movlb	0	; select bank0
  4351  005F  0837               	movf	?___awmod+1,w
  4352  0060  0085               	movwf	5
  4353  0061  0836               	movf	?___awmod,w
  4354  0062  0084               	movwf	4
  4355  0063  30A1               	movlw	low (_segmcode| (0+32768))
  4356  0064  0784               	addwf	4,f
  4357  0065  3082               	movlw	high (_segmcode| (0+32768))
  4358  0066  3D85               	addwfc	5,f
  4359  0067  0800               	movf	0,w	;code access
  4360  0068  00C3               	movwf	??_display_update+2
  4361  0069  0843               	movf	??_display_update+2,w
  4362  006A  00BD               	movwf	display_write_once@HR
  4363  006B  300A               	movlw	10
  4364  006C  00B6               	movwf	___awmod@divisor
  4365  006D  3000               	movlw	0
  4366  006E  00B7               	movwf	___awmod@divisor+1
  4367  006F  082F               	movf	display_update@i,w
  4368  0070  00C4               	movwf	??_display_update+3
  4369  0071  01C5               	clrf	??_display_update+4
  4370  0072  0844               	movf	??_display_update+3,w
  4371  0073  00B8               	movwf	___awmod@dividend
  4372  0074  0845               	movf	??_display_update+4,w
  4373  0075  00B9               	movwf	___awmod@dividend+1
  4374  0076  3181  212D  3180   	fcall	___awmod
  4375  0079  0020               	movlb	0	; select bank0
  4376  007A  0837               	movf	?___awmod+1,w
  4377  007B  0085               	movwf	5
  4378  007C  0836               	movf	?___awmod,w
  4379  007D  0084               	movwf	4
  4380  007E  30A1               	movlw	low (_segmcode| (0+32768))
  4381  007F  0784               	addwf	4,f
  4382  0080  3082               	movlw	high (_segmcode| (0+32768))
  4383  0081  3D85               	addwfc	5,f
  4384  0082  0800               	movf	0,w	;code access
  4385  0083  00C6               	movwf	??_display_update+5
  4386  0084  0846               	movf	??_display_update+5,w
  4387  0085  00BE               	movwf	display_write_once@ML
  4388  0086  300A               	movlw	10
  4389  0087  00B6               	movwf	___awmod@divisor
  4390  0088  3000               	movlw	0
  4391  0089  00B7               	movwf	___awmod@divisor+1
  4392  008A  082F               	movf	display_update@i,w
  4393  008B  00C7               	movwf	??_display_update+6
  4394  008C  01C8               	clrf	??_display_update+7
  4395  008D  0847               	movf	??_display_update+6,w
  4396  008E  00B8               	movwf	___awmod@dividend
  4397  008F  0848               	movf	??_display_update+7,w
  4398  0090  00B9               	movwf	___awmod@dividend+1
  4399  0091  3181  212D  3180   	fcall	___awmod
  4400  0094  0020               	movlb	0	; select bank0
  4401  0095  0837               	movf	?___awmod+1,w
  4402  0096  0085               	movwf	5
  4403  0097  0836               	movf	?___awmod,w
  4404  0098  0084               	movwf	4
  4405  0099  30A1               	movlw	low (_segmcode| (0+32768))
  4406  009A  0784               	addwf	4,f
  4407  009B  3082               	movlw	high (_segmcode| (0+32768))
  4408  009C  3D85               	addwfc	5,f
  4409  009D  0800               	movf	0,w	;code access
  4410  009E  00C9               	movwf	??_display_update+8
  4411  009F  0849               	movf	??_display_update+8,w
  4412  00A0  00BF               	movwf	display_write_once@MR
  4413  00A1  300A               	movlw	10
  4414  00A2  00B6               	movwf	___awmod@divisor
  4415  00A3  3000               	movlw	0
  4416  00A4  00B7               	movwf	___awmod@divisor+1
  4417  00A5  082F               	movf	display_update@i,w
  4418  00A6  00CA               	movwf	??_display_update+9
  4419  00A7  01CB               	clrf	??_display_update+10
  4420  00A8  084A               	movf	??_display_update+9,w
  4421  00A9  00B8               	movwf	___awmod@dividend
  4422  00AA  084B               	movf	??_display_update+10,w
  4423  00AB  00B9               	movwf	___awmod@dividend+1
  4424  00AC  3181  212D  3180   	fcall	___awmod
  4425  00AF  0020               	movlb	0	; select bank0
  4426  00B0  0837               	movf	?___awmod+1,w
  4427  00B1  0085               	movwf	5
  4428  00B2  0836               	movf	?___awmod,w
  4429  00B3  0084               	movwf	4
  4430  00B4  30A1               	movlw	low (_segmcode| (0+32768))
  4431  00B5  0784               	addwf	4,f
  4432  00B6  3082               	movlw	high (_segmcode| (0+32768))
  4433  00B7  3D85               	addwfc	5,f
  4434  00B8  0800               	movf	0,w	;code access
  4435  00B9  3182  2207         	fcall	_display_write_once
  4436                           
  4437                           ;display.c: 91:     i++;
  4438  00BB  3001               	movlw	1
  4439  00BC  0020               	movlb	0	; select bank0
  4440  00BD  00C1               	movwf	??_display_update
  4441  00BE  0841               	movf	??_display_update,w
  4442  00BF  07AF               	addwf	display_update@i,f
  4443  00C0  0008               	return
  4444  00C1                     __end_of_display_update:	
  4445                           ;display.c: 92:     return;
  4446                           
  4447                           
  4448                           	psect	text10
  4449  0207                     __ptext10:	
  4450 ;; *************** function _display_write_once *****************
  4451 ;; Defined at:
  4452 ;;		line 54 in file "display.c"
  4453 ;; Parameters:    Size  Location     Type
  4454 ;;  HL              1    wreg     unsigned char 
  4455 ;;  HR              1    7[BANK0 ] unsigned char 
  4456 ;;  ML              1    8[BANK0 ] unsigned char 
  4457 ;;  MR              1    9[BANK0 ] unsigned char 
  4458 ;; Auto vars:     Size  Location     Type
  4459 ;;  HL              1   10[BANK0 ] unsigned char 
  4460 ;; Return value:  Size  Location     Type
  4461 ;;                  1    wreg      void 
  4462 ;; Registers used:
  4463 ;;		wreg, status,2, status,0, pclath, cstack
  4464 ;; Tracked objects:
  4465 ;;		On entry : 0/0
  4466 ;;		On exit  : 0/0
  4467 ;;		Unchanged: 0/0
  4468 ;; Data sizes:     COMMON   BANK0   BANK1   BANK2   BANK3   BANK4   BANK5   BANK6   BANK7   BANK8   BANK9  BANK10  BANK1
      +1  BANK12
  4469 ;;      Params:         0       3       0       0       0       0       0       0       0       0       0       0       
      +0       0
  4470 ;;      Locals:         0       1       0       0       0       0       0       0       0       0       0       0       
      +0       0
  4471 ;;      Temps:          0       0       0       0       0       0       0       0       0       0       0       0       
      +0       0
  4472 ;;      Totals:         0       4       0       0       0       0       0       0       0       0       0       0       
      +0       0
  4473 ;;Total ram usage:        4 bytes
  4474 ;; Hardware stack levels used:    1
  4475 ;; Hardware stack levels required when called:    7
  4476 ;; This function calls:
  4477 ;;		_display_control595_delay
  4478 ;;		_display_write_byte
  4479 ;; This function is called by:
  4480 ;;		_display_update
  4481 ;; This function uses a non-reentrant model
  4482 ;;
  4483                           
  4484                           
  4485                           ;psect for function _display_write_once
  4486  0207                     _display_write_once:	
  4487                           
  4488                           ;incstack = 0
  4489                           ; Regs used in _display_write_once: [wreg+status,2+status,0+pclath+cstack]
  4490                           ;display_write_once@HL stored from wreg
  4491  0207  0020               	movlb	0	; select bank0
  4492  0208  00C0               	movwf	display_write_once@HL
  4493                           
  4494                           ;display.c: 56:     display_write_byte(HL);
  4495  0209  0840               	movf	display_write_once@HL,w
  4496  020A  3181  21DC  3182   	fcall	_display_write_byte
  4497                           
  4498                           ;display.c: 57:     display_write_byte(HR);
  4499  020D  0020               	movlb	0	; select bank0
  4500  020E  083D               	movf	display_write_once@HR,w
  4501  020F  3181  21DC  3182   	fcall	_display_write_byte
  4502                           
  4503                           ;display.c: 58:     display_write_byte(ML);
  4504  0212  0020               	movlb	0	; select bank0
  4505  0213  083E               	movf	display_write_once@ML,w
  4506  0214  3181  21DC  3182   	fcall	_display_write_byte
  4507                           
  4508                           ;display.c: 59:     display_write_byte(MR);
  4509  0217  0020               	movlb	0	; select bank0
  4510  0218  083F               	movf	display_write_once@MR,w
  4511  0219  3181  21DC  3182   	fcall	_display_write_byte
  4512                           
  4513                           ;display.c: 62:     LATBbits.LATB0 = PIN_LOW;
  4514  021C  0022               	movlb	2	; select bank2
  4515  021D  100D               	bcf	13,0	;volatile
  4516                           
  4517                           ;display.c: 63:     display_control595_delay();
  4518  021E  3182  2287  3182   	fcall	_display_control595_delay
  4519                           
  4520                           ;display.c: 64:     LATBbits.LATB0 = PIN_HIGH;
  4521  0221  0022               	movlb	2	; select bank2
  4522  0222  140D               	bsf	13,0	;volatile
  4523                           
  4524                           ;display.c: 65:     display_control595_delay();
  4525  0223  3182  2287  3182   	fcall	_display_control595_delay
  4526                           
  4527                           ;display.c: 67:     LATBbits.LATB1 = PIN_HIGH;
  4528  0226  0022               	movlb	2	; select bank2
  4529  0227  148D               	bsf	13,1	;volatile
  4530                           
  4531                           ;display.c: 68:  display_control595_delay();
  4532  0228  3182  2287         	fcall	_display_control595_delay
  4533                           
  4534                           ;display.c: 69:     LATBbits.LATB1 = PIN_LOW;
  4535  022A  0022               	movlb	2	; select bank2
  4536  022B  108D               	bcf	13,1	;volatile
  4537  022C  0008               	return
  4538  022D                     __end_of_display_write_once:	
  4539                           
  4540                           	psect	text11
  4541  01DC                     __ptext11:	
  4542 ;; *************** function _display_write_byte *****************
  4543 ;; Defined at:
  4544 ;;		line 42 in file "display.c"
  4545 ;; Parameters:    Size  Location     Type
  4546 ;;  data            1    wreg     unsigned char 
  4547 ;; Auto vars:     Size  Location     Type
  4548 ;;  data            1    4[BANK0 ] unsigned char 
  4549 ;;  i               1    5[BANK0 ] unsigned char 
  4550 ;; Return value:  Size  Location     Type
  4551 ;;                  1    wreg      void 
  4552 ;; Registers used:
  4553 ;;		wreg, status,2, status,0, pclath, cstack
  4554 ;; Tracked objects:
  4555 ;;		On entry : 0/0
  4556 ;;		On exit  : 0/0
  4557 ;;		Unchanged: 0/0
  4558 ;; Data sizes:     COMMON   BANK0   BANK1   BANK2   BANK3   BANK4   BANK5   BANK6   BANK7   BANK8   BANK9  BANK10  BANK1
      +1  BANK12
  4559 ;;      Params:         0       0       0       0       0       0       0       0       0       0       0       0       
      +0       0
  4560 ;;      Locals:         0       2       0       0       0       0       0       0       0       0       0       0       
      +0       0
  4561 ;;      Temps:          0       2       0       0       0       0       0       0       0       0       0       0       
      +0       0
  4562 ;;      Totals:         0       4       0       0       0       0       0       0       0       0       0       0       
      +0       0
  4563 ;;Total ram usage:        4 bytes
  4564 ;; Hardware stack levels used:    1
  4565 ;; Hardware stack levels required when called:    6
  4566 ;; This function calls:
  4567 ;;		_display_control595_delay
  4568 ;; This function is called by:
  4569 ;;		_display_write_once
  4570 ;; This function uses a non-reentrant model
  4571 ;;
  4572                           
  4573                           
  4574                           ;psect for function _display_write_byte
  4575  01DC                     _display_write_byte:	
  4576                           
  4577                           ;incstack = 0
  4578                           ; Regs used in _display_write_byte: [wreg+status,2+status,0+pclath+cstack]
  4579                           ;display_write_byte@data stored from wreg
  4580  01DC  0020               	movlb	0	; select bank0
  4581  01DD  00BA               	movwf	display_write_byte@data
  4582                           
  4583                           ;display.c: 43:     u8 i;;display.c: 44:     for(i = 0; i < 8; i++){
  4584  01DE  01BB               	clrf	display_write_byte@i
  4585  01DF                     L1:	
  4586  01DF  3008               	movlw	8
  4587  01E0  023B               	subwf	display_write_byte@i,w
  4588  01E1  1803               	btfsc	3,0
  4589  01E2  0008               	return
  4590                           
  4591                           ;display.c: 45:   LATBbits.LATB5 = (data & 0x80) >> 7;
  4592  01E3  083A               	movf	display_write_byte@data,w
  4593  01E4  00B8               	movwf	??_display_write_byte
  4594  01E5  3007               	movlw	7
  4595  01E6                     u1325:	
  4596  01E6  36B8               	lsrf	??_display_write_byte,f
  4597  01E7  0B89               	decfsz	9,f
  4598  01E8  29E6               	goto	u1325
  4599  01E9  0838               	movf	??_display_write_byte,w
  4600  01EA  3901               	andlw	1
  4601  01EB  00B9               	movwf	??_display_write_byte+1
  4602  01EC  0EB9               	swapf	??_display_write_byte+1,f
  4603  01ED  0DB9               	rlf	??_display_write_byte+1,f
  4604  01EE  0022               	movlb	2	; select bank2
  4605  01EF  080D               	movf	13,w	;volatile
  4606  01F0  0020               	movlb	0	; select bank0
  4607  01F1  0639               	xorwf	??_display_write_byte+1,w
  4608  01F2  39DF               	andlw	-33
  4609  01F3  0639               	xorwf	??_display_write_byte+1,w
  4610  01F4  0022               	movlb	2	; select bank2
  4611  01F5  008D               	movwf	13	;volatile
  4612                           
  4613                           ;display.c: 46:         LATBbits.LATB0 = PIN_LOW;
  4614  01F6  100D               	bcf	13,0	;volatile
  4615                           
  4616                           ;display.c: 47:   display_control595_delay();
  4617  01F7  3182  2287  3181   	fcall	_display_control595_delay
  4618                           
  4619                           ;display.c: 48:         LATBbits.LATB0 = PIN_HIGH;
  4620  01FA  0022               	movlb	2	; select bank2
  4621  01FB  140D               	bsf	13,0	;volatile
  4622                           
  4623                           ;display.c: 49:   display_control595_delay();
  4624  01FC  3182  2287  3181   	fcall	_display_control595_delay
  4625                           
  4626                           ;display.c: 50:         data <<= 1;
  4627  01FF  1003               	clrc
  4628  0200  0020               	movlb	0	; select bank0
  4629  0201  0DBA               	rlf	display_write_byte@data,f
  4630                           
  4631                           ;display.c: 51:     }
  4632  0202  3001               	movlw	1
  4633  0203  00B8               	movwf	??_display_write_byte
  4634  0204  0838               	movf	??_display_write_byte,w
  4635  0205  07BB               	addwf	display_write_byte@i,f
  4636  0206  29DF               	goto	L1
  4637  0207                     __end_of_display_write_byte:	
  4638                           
  4639                           	psect	text12
  4640  0287                     __ptext12:	
  4641 ;; *************** function _display_control595_delay *****************
  4642 ;; Defined at:
  4643 ;;		line 26 in file "display.c"
  4644 ;; Parameters:    Size  Location     Type
  4645 ;;		None
  4646 ;; Auto vars:     Size  Location     Type
  4647 ;;  times           1    1[BANK0 ] unsigned char 
  4648 ;; Return value:  Size  Location     Type
  4649 ;;                  1    wreg      void 
  4650 ;; Registers used:
  4651 ;;		wreg, status,2, status,0
  4652 ;; Tracked objects:
  4653 ;;		On entry : 0/0
  4654 ;;		On exit  : 0/0
  4655 ;;		Unchanged: 0/0
  4656 ;; Data sizes:     COMMON   BANK0   BANK1   BANK2   BANK3   BANK4   BANK5   BANK6   BANK7   BANK8   BANK9  BANK10  BANK1
      +1  BANK12
  4657 ;;      Params:         0       0       0       0       0       0       0       0       0       0       0       0       
      +0       0
  4658 ;;      Locals:         0       1       0       0       0       0       0       0       0       0       0       0       
      +0       0
  4659 ;;      Temps:          0       1       0       0       0       0       0       0       0       0       0       0       
      +0       0
  4660 ;;      Totals:         0       2       0       0       0       0       0       0       0       0       0       0       
      +0       0
  4661 ;;Total ram usage:        2 bytes
  4662 ;; Hardware stack levels used:    1
  4663 ;; Hardware stack levels required when called:    5
  4664 ;; This function calls:
  4665 ;;		Nothing
  4666 ;; This function is called by:
  4667 ;;		_display_write_byte
  4668 ;;		_display_write_once
  4669 ;; This function uses a non-reentrant model
  4670 ;;
  4671                           
  4672                           
  4673                           ;psect for function _display_control595_delay
  4674  0287                     _display_control595_delay:	
  4675                           
  4676                           ;display.c: 27:    u8 times = 10;
  4677                           
  4678                           ;incstack = 0
  4679                           ; Regs used in _display_control595_delay: [wreg+status,2+status,0]
  4680  0287  300A               	movlw	10
  4681  0288  0020               	movlb	0	; select bank0
  4682  0289  00B6               	movwf	??_display_control595_delay
  4683  028A  0836               	movf	??_display_control595_delay,w
  4684  028B  00B7               	movwf	display_control595_delay@times
  4685  028C                     l355:	
  4686                           ;display.c: 31:    }
  4687                           
  4688                           ;display.c: 28:    while(times > 0){
  4689                           
  4690                           
  4691                           ;display.c: 28:    while(times > 0){
  4692  028C  0837               	movf	display_control595_delay@times,w
  4693  028D  1903               	btfsc	3,2
  4694  028E  0008               	return
  4695                           
  4696                           ;display.c: 29:     __nop();
  4697  028F  0000               	nop
  4698                           
  4699                           ;display.c: 30:        times--;
  4700  0290  3001               	movlw	1
  4701  0291  0020               	movlb	0	; select bank0
  4702  0292  02B7               	subwf	display_control595_delay@times,f
  4703  0293  2A8C               	goto	l355
  4704  0294                     __end_of_display_control595_delay:	
  4705                           
  4706                           	psect	text13
  4707  012D                     __ptext13:	
  4708 ;; *************** function ___awmod *****************
  4709 ;; Defined at:
  4710 ;;		line 5 in file "F:\other_software\MPLAB_X_IDE\xc8\v2.00\pic\sources\c99\common\awmod.c"
  4711 ;; Parameters:    Size  Location     Type
  4712 ;;  divisor         2    0[BANK0 ] int 
  4713 ;;  dividend        2    2[BANK0 ] int 
  4714 ;; Auto vars:     Size  Location     Type
  4715 ;;  sign            1    6[BANK0 ] unsigned char 
  4716 ;;  counter         1    5[BANK0 ] unsigned char 
  4717 ;; Return value:  Size  Location     Type
  4718 ;;                  2    0[BANK0 ] int 
  4719 ;; Registers used:
  4720 ;;		wreg, status,2, status,0
  4721 ;; Tracked objects:
  4722 ;;		On entry : 0/0
  4723 ;;		On exit  : 0/0
  4724 ;;		Unchanged: 0/0
  4725 ;; Data sizes:     COMMON   BANK0   BANK1   BANK2   BANK3   BANK4   BANK5   BANK6   BANK7   BANK8   BANK9  BANK10  BANK1
      +1  BANK12
  4726 ;;      Params:         0       4       0       0       0       0       0       0       0       0       0       0       
      +0       0
  4727 ;;      Locals:         0       2       0       0       0       0       0       0       0       0       0       0       
      +0       0
  4728 ;;      Temps:          0       1       0       0       0       0       0       0       0       0       0       0       
      +0       0
  4729 ;;      Totals:         0       7       0       0       0       0       0       0       0       0       0       0       
      +0       0
  4730 ;;Total ram usage:        7 bytes
  4731 ;; Hardware stack levels used:    1
  4732 ;; Hardware stack levels required when called:    5
  4733 ;; This function calls:
  4734 ;;		Nothing
  4735 ;; This function is called by:
  4736 ;;		_display_update
  4737 ;; This function uses a non-reentrant model
  4738 ;;
  4739                           
  4740                           
  4741                           ;psect for function ___awmod
  4742  012D                     ___awmod:	
  4743                           
  4744                           ;incstack = 0
  4745                           ; Regs used in ___awmod: [wreg+status,2+status,0]
  4746  012D  0020               	movlb	0	; select bank0
  4747  012E  01BC               	clrf	___awmod@sign
  4748  012F  1FB9               	btfss	___awmod@dividend+1,7
  4749  0130  2938               	goto	l2205
  4750  0131  09B8               	comf	___awmod@dividend,f
  4751  0132  09B9               	comf	___awmod@dividend+1,f
  4752  0133  0AB8               	incf	___awmod@dividend,f
  4753  0134  1903               	skipnz
  4754  0135  0AB9               	incf	___awmod@dividend+1,f
  4755  0136  01BC               	clrf	___awmod@sign
  4756  0137  0ABC               	incf	___awmod@sign,f
  4757  0138                     l2205:	
  4758  0138  1FB7               	btfss	___awmod@divisor+1,7
  4759  0139  293F               	goto	l2209
  4760  013A  09B6               	comf	___awmod@divisor,f
  4761  013B  09B7               	comf	___awmod@divisor+1,f
  4762  013C  0AB6               	incf	___awmod@divisor,f
  4763  013D  1903               	skipnz
  4764  013E  0AB7               	incf	___awmod@divisor+1,f
  4765  013F                     l2209:	
  4766  013F  0836               	movf	___awmod@divisor,w
  4767  0140  0437               	iorwf	___awmod@divisor+1,w
  4768  0141  1903               	btfsc	3,2
  4769  0142  2966               	goto	l2227
  4770  0143  01BB               	clrf	___awmod@counter
  4771  0144  0ABB               	incf	___awmod@counter,f
  4772  0145                     l2217:	
  4773  0145  1BB7               	btfsc	___awmod@divisor+1,7
  4774  0146  2951               	goto	l2219
  4775  0147  3001               	movlw	1
  4776  0148                     u1575:	
  4777  0148  35B6               	lslf	___awmod@divisor,f
  4778  0149  0DB7               	rlf	___awmod@divisor+1,f
  4779  014A  0B89               	decfsz	9,f
  4780  014B  2948               	goto	u1575
  4781  014C  3001               	movlw	1
  4782  014D  00BA               	movwf	??___awmod
  4783  014E  083A               	movf	??___awmod,w
  4784  014F  07BB               	addwf	___awmod@counter,f
  4785  0150  2945               	goto	l2217
  4786  0151                     l2219:	
  4787  0151  0837               	movf	___awmod@divisor+1,w
  4788  0152  0239               	subwf	___awmod@dividend+1,w
  4789  0153  1D03               	skipz
  4790  0154  2957               	goto	u1595
  4791  0155  0836               	movf	___awmod@divisor,w
  4792  0156  0238               	subwf	___awmod@dividend,w
  4793  0157                     u1595:	
  4794  0157  1C03               	skipc
  4795  0158  295D               	goto	l2223
  4796  0159  0836               	movf	___awmod@divisor,w
  4797  015A  02B8               	subwf	___awmod@dividend,f
  4798  015B  0837               	movf	___awmod@divisor+1,w
  4799  015C  3BB9               	subwfb	___awmod@dividend+1,f
  4800  015D                     l2223:	
  4801  015D  3001               	movlw	1
  4802  015E                     u1605:	
  4803  015E  36B7               	lsrf	___awmod@divisor+1,f
  4804  015F  0CB6               	rrf	___awmod@divisor,f
  4805  0160  0B89               	decfsz	9,f
  4806  0161  295E               	goto	u1605
  4807  0162  3001               	movlw	1
  4808  0163  02BB               	subwf	___awmod@counter,f
  4809  0164  1D03               	btfss	3,2
  4810  0165  2951               	goto	l2219
  4811  0166                     l2227:	
  4812  0166  083C               	movf	___awmod@sign,w
  4813  0167  1903               	btfsc	3,2
  4814  0168  296E               	goto	l2231
  4815  0169  09B8               	comf	___awmod@dividend,f
  4816  016A  09B9               	comf	___awmod@dividend+1,f
  4817  016B  0AB8               	incf	___awmod@dividend,f
  4818  016C  1903               	skipnz
  4819  016D  0AB9               	incf	___awmod@dividend+1,f
  4820  016E                     l2231:	
  4821  016E  0839               	movf	___awmod@dividend+1,w
  4822  016F  00B7               	movwf	?___awmod+1
  4823  0170  0838               	movf	___awmod@dividend,w
  4824  0171  00B6               	movwf	?___awmod
  4825  0172  0008               	return
  4826  0173                     __end_of___awmod:	
  4827                           
  4828                           	psect	intentry
  4829  0004                     __pintentry:	
  4830 ;; *************** function _ISR *****************
  4831 ;; Defined at:
  4832 ;;		line 193 in file "main.c"
  4833 ;; Parameters:    Size  Location     Type
  4834 ;;		None
  4835 ;; Auto vars:     Size  Location     Type
  4836 ;;		None
  4837 ;; Return value:  Size  Location     Type
  4838 ;;                  1    wreg      void 
  4839 ;; Registers used:
  4840 ;;		wreg, fsr1l, fsr1h, status,2, status,0, pclath, cstack
  4841 ;; Tracked objects:
  4842 ;;		On entry : 0/0
  4843 ;;		On exit  : 0/0
  4844 ;;		Unchanged: 0/0
  4845 ;; Data sizes:     COMMON   BANK0   BANK1   BANK2   BANK3   BANK4   BANK5   BANK6   BANK7   BANK8   BANK9  BANK10  BANK1
      +1  BANK12
  4846 ;;      Params:         0       0       0       0       0       0       0       0       0       0       0       0       
      +0       0
  4847 ;;      Locals:         0       0       0       0       0       0       0       0       0       0       0       0       
      +0       0
  4848 ;;      Temps:          2       0       0       0       0       0       0       0       0       0       0       0       
      +0       0
  4849 ;;      Totals:         2       0       0       0       0       0       0       0       0       0       0       0       
      +0       0
  4850 ;;Total ram usage:        2 bytes
  4851 ;; Hardware stack levels used:    1
  4852 ;; Hardware stack levels required when called:    4
  4853 ;; This function calls:
  4854 ;;		_ISR_uart_TX
  4855 ;;		___lwmod
  4856 ;;		_led_Blink
  4857 ;;		_timer_IsTimer0Itrpt
  4858 ;;		_timer_Timer0Handdle
  4859 ;;		_uart_Send_byte
  4860 ;;		i1_timer_Timer0Reset
  4861 ;; This function is called by:
  4862 ;;		Interrupt level 1
  4863 ;; This function uses a non-reentrant model
  4864 ;;
  4865                           
  4866  0004                     _ISR:	
  4867                           
  4868                           ;incstack = 0
  4869  0004  147E               	bsf	126,0	;set compiler interrupt flag (level 1)
  4870                           
  4871                           ; Regs used in _ISR: [wreg+fsr1l+fsr1h+status,2+status,0+pclath+cstack]
  4872  0005  3180               	pagesel	$
  4873                           
  4874                           ;main.c: 207:     if(timer_IsTimer0Itrpt())
  4875  0006  3182  22E8  3180   	fcall	_timer_IsTimer0Itrpt
  4876  0009  3A00               	xorlw	0
  4877  000A  1903               	skipnz
  4878  000B  2830               	goto	i1l2741
  4879                           
  4880                           ;main.c: 208:     {;main.c: 209:         timer_Timer0Handdle();
  4881  000C  3182  22EC  3180   	fcall	_timer_Timer0Handdle
  4882                           
  4883                           ;main.c: 211:         if(cnt++ % 100 == 0)
  4884  000F  3064               	movlw	100
  4885  0010  00F0               	movwf	___lwmod@divisor
  4886  0011  3000               	movlw	0
  4887  0012  00F1               	movwf	___lwmod@divisor+1
  4888  0013  0020               	movlb	0	; select bank0
  4889  0014  0829               	movf	ISR@cnt+1,w
  4890  0015  00FA               	movwf	??_ISR+1
  4891  0016  0828               	movf	ISR@cnt,w
  4892  0017  00F9               	movwf	??_ISR
  4893  0018  0AA8               	incf	ISR@cnt,f
  4894  0019  1903               	skipnz
  4895  001A  0AA9               	incf	ISR@cnt+1,f
  4896  001B  0879               	movf	??_ISR,w
  4897  001C  00F2               	movwf	___lwmod@dividend
  4898  001D  087A               	movf	??_ISR+1,w
  4899  001E  00F3               	movwf	___lwmod@dividend+1
  4900  001F  3181  21B0  3180   	fcall	___lwmod
  4901  0022  0870               	movf	?___lwmod,w
  4902  0023  0471               	iorwf	?___lwmod+1,w
  4903  0024  1D03               	btfss	3,2
  4904  0025  282D               	goto	i1l118
  4905                           
  4906                           ;main.c: 212:         {;main.c: 213:             uart_Send_byte(0xa5);
  4907  0026  30A5               	movlw	165
  4908  0027  3182  226A  3180   	fcall	_uart_Send_byte
  4909                           
  4910                           ;main.c: 214:             led_Blink();
  4911  002A  3182  22B7  3180   	fcall	_led_Blink
  4912  002D                     i1l118:	
  4913                           ;main.c: 215:         }
  4914                           
  4915                           
  4916                           ;main.c: 217:         timer_Timer0Reset();
  4917  002D  3182  22DF  3180   	fcall	i1_timer_Timer0Reset
  4918  0030                     i1l2741:	
  4919                           ;main.c: 218:     }
  4920                           
  4921                           
  4922                           ;main.c: 231:     if(TXIF)
  4923  0030  0020               	movlb	0	; select bank0
  4924  0031  1E11               	btfss	17,4	;volatile
  4925  0032  2835               	goto	i1l120
  4926                           
  4927                           ;main.c: 232:     {;main.c: 233:         ISR_uart_TX();
  4928  0033  3182  2294         	fcall	_ISR_uart_TX
  4929  0035                     i1l120:	
  4930                           ;main.c: 234:     }
  4931                           
  4932  0035  107E               	bcf	126,0	;clear compiler interrupt flag (level 1)
  4933  0036  0009               	retfie
  4934  0037                     __end_of_ISR:	
  4935                           
  4936                           	psect	text15
  4937  02DF                     __ptext15:	
  4938 ;; *************** function i1_timer_Timer0Reset *****************
  4939 ;; Defined at:
  4940 ;;		line 91 in file "timer.c"
  4941 ;; Parameters:    Size  Location     Type
  4942 ;;		None
  4943 ;; Auto vars:     Size  Location     Type
  4944 ;;		None
  4945 ;; Return value:  Size  Location     Type
  4946 ;;                  1    wreg      void 
  4947 ;; Registers used:
  4948 ;;		wreg
  4949 ;; Tracked objects:
  4950 ;;		On entry : 0/0
  4951 ;;		On exit  : 0/0
  4952 ;;		Unchanged: 0/0
  4953 ;; Data sizes:     COMMON   BANK0   BANK1   BANK2   BANK3   BANK4   BANK5   BANK6   BANK7   BANK8   BANK9  BANK10  BANK1
      +1  BANK12
  4954 ;;      Params:         0       0       0       0       0       0       0       0       0       0       0       0       
      +0       0
  4955 ;;      Locals:         0       0       0       0       0       0       0       0       0       0       0       0       
      +0       0
  4956 ;;      Temps:          0       0       0       0       0       0       0       0       0       0       0       0       
      +0       0
  4957 ;;      Totals:         0       0       0       0       0       0       0       0       0       0       0       0       
      +0       0
  4958 ;;Total ram usage:        0 bytes
  4959 ;; Hardware stack levels used:    1
  4960 ;; This function calls:
  4961 ;;		Nothing
  4962 ;; This function is called by:
  4963 ;;		_ISR
  4964 ;; This function uses a non-reentrant model
  4965 ;;
  4966                           
  4967                           
  4968                           ;psect for function i1_timer_Timer0Reset
  4969  02DF                     i1_timer_Timer0Reset:	
  4970                           
  4971                           ;timer.c: 93:     INTCONbits.TMR0IF = 0;
  4972                           
  4973                           ;incstack = 0
  4974                           ; Regs used in i1_timer_Timer0Reset: [wreg]
  4975  02DF  110B               	bcf	11,2	;volatile
  4976                           
  4977                           ;timer.c: 94:     TMR0 = (217 + 14);
  4978  02E0  30E7               	movlw	231
  4979  02E1  0020               	movlb	0	; select bank0
  4980  02E2  0095               	movwf	21	;volatile
  4981  02E3  0008               	return
  4982  02E4                     __end_ofi1_timer_Timer0Reset:	
  4983                           
  4984                           	psect	text16
  4985  026A                     __ptext16:	
  4986 ;; *************** function _uart_Send_byte *****************
  4987 ;; Defined at:
  4988 ;;		line 52 in file "uart.c"
  4989 ;; Parameters:    Size  Location     Type
  4990 ;;  byte            1    wreg     unsigned char 
  4991 ;; Auto vars:     Size  Location     Type
  4992 ;;  byte            1    1[COMMON] unsigned char 
  4993 ;; Return value:  Size  Location     Type
  4994 ;;                  1    wreg      void 
  4995 ;; Registers used:
  4996 ;;		wreg
  4997 ;; Tracked objects:
  4998 ;;		On entry : 0/0
  4999 ;;		On exit  : 0/0
  5000 ;;		Unchanged: 0/0
  5001 ;; Data sizes:     COMMON   BANK0   BANK1   BANK2   BANK3   BANK4   BANK5   BANK6   BANK7   BANK8   BANK9  BANK10  BANK1
      +1  BANK12
  5002 ;;      Params:         0       0       0       0       0       0       0       0       0       0       0       0       
      +0       0
  5003 ;;      Locals:         1       0       0       0       0       0       0       0       0       0       0       0       
      +0       0
  5004 ;;      Temps:          1       0       0       0       0       0       0       0       0       0       0       0       
      +0       0
  5005 ;;      Totals:         2       0       0       0       0       0       0       0       0       0       0       0       
      +0       0
  5006 ;;Total ram usage:        2 bytes
  5007 ;; Hardware stack levels used:    1
  5008 ;; This function calls:
  5009 ;;		Nothing
  5010 ;; This function is called by:
  5011 ;;		_ISR
  5012 ;; This function uses a non-reentrant model
  5013 ;;
  5014                           
  5015                           
  5016                           ;psect for function _uart_Send_byte
  5017  026A                     _uart_Send_byte:	
  5018                           
  5019                           ;incstack = 0
  5020                           ; Regs used in _uart_Send_byte: [wreg]
  5021                           ;uart_Send_byte@byte stored from wreg
  5022  026A  00F1               	movwf	uart_Send_byte@byte
  5023                           
  5024                           ;uart.c: 52: void uart_Send_byte(u8 byte);uart.c: 53: {;uart.c: 54:     TX_en = 1;
  5025  026B  0020               	movlb	0	; select bank0
  5026  026C  01B1               	clrf	_TX_en
  5027  026D  0AB1               	incf	_TX_en,f
  5028                           
  5029                           ;uart.c: 55:     TXEN = 1;
  5030  026E  0023               	movlb	3	; select bank3
  5031  026F  169E               	bsf	30,5	;volatile
  5032                           
  5033                           ;uart.c: 56:     SYNC = 0;
  5034  0270  121E               	bcf	30,4	;volatile
  5035                           
  5036                           ;uart.c: 57:     SPEN = 1;
  5037  0271  179D               	bsf	29,7	;volatile
  5038                           
  5039                           ;uart.c: 58:     TXIE = 1;
  5040  0272  0021               	movlb	1	; select bank1
  5041  0273  1611               	bsf	17,4	;volatile
  5042                           
  5043                           ;uart.c: 59:     TX_data = byte;
  5044  0274  0871               	movf	uart_Send_byte@byte,w
  5045  0275  00F0               	movwf	??_uart_Send_byte
  5046  0276  0870               	movf	??_uart_Send_byte,w
  5047  0277  0020               	movlb	0	; select bank0
  5048  0278  00B3               	movwf	_TX_data
  5049  0279  0008               	return
  5050  027A                     __end_of_uart_Send_byte:	
  5051                           
  5052                           	psect	text17
  5053  02EC                     __ptext17:	
  5054 ;; *************** function _timer_Timer0Handdle *****************
  5055 ;; Defined at:
  5056 ;;		line 109 in file "timer.c"
  5057 ;; Parameters:    Size  Location     Type
  5058 ;;		None
  5059 ;; Auto vars:     Size  Location     Type
  5060 ;;		None
  5061 ;; Return value:  Size  Location     Type
  5062 ;;                  2   64[None  ] int 
  5063 ;; Registers used:
  5064 ;;		wreg, fsr1l, fsr1h, status,2, status,0, pclath, cstack
  5065 ;; Tracked objects:
  5066 ;;		On entry : 0/0
  5067 ;;		On exit  : 0/0
  5068 ;;		Unchanged: 0/0
  5069 ;; Data sizes:     COMMON   BANK0   BANK1   BANK2   BANK3   BANK4   BANK5   BANK6   BANK7   BANK8   BANK9  BANK10  BANK1
      +1  BANK12
  5070 ;;      Params:         0       0       0       0       0       0       0       0       0       0       0       0       
      +0       0
  5071 ;;      Locals:         0       0       0       0       0       0       0       0       0       0       0       0       
      +0       0
  5072 ;;      Temps:          0       0       0       0       0       0       0       0       0       0       0       0       
      +0       0
  5073 ;;      Totals:         0       0       0       0       0       0       0       0       0       0       0       0       
      +0       0
  5074 ;;Total ram usage:        0 bytes
  5075 ;; Hardware stack levels used:    1
  5076 ;; Hardware stack levels required when called:    3
  5077 ;; This function calls:
  5078 ;;		_key_isPressed
  5079 ;; This function is called by:
  5080 ;;		_ISR
  5081 ;; This function uses a non-reentrant model
  5082 ;;
  5083                           
  5084                           
  5085                           ;psect for function _timer_Timer0Handdle
  5086  02EC                     _timer_Timer0Handdle:	
  5087                           
  5088                           ;timer.c: 111:     key_isPressed();
  5089                           
  5090                           ;incstack = 0
  5091                           ; Regs used in _timer_Timer0Handdle: [wreg+fsr1l+fsr1h+status,2+status,0+pclath+cstack]
  5092  02EC  3181  2173         	fcall	_key_isPressed
  5093  02EE  0008               	return
  5094  02EF                     __end_of_timer_Timer0Handdle:	
  5095                           ;timer.c: 113:     return 0;;	Return value of _timer_Timer0Handdle is never used
  5096                           
  5097                           
  5098                           	psect	text18
  5099  0173                     __ptext18:	
  5100 ;; *************** function _key_isPressed *****************
  5101 ;; Defined at:
  5102 ;;		line 123 in file "hardware.c"
  5103 ;; Parameters:    Size  Location     Type
  5104 ;;		None
  5105 ;; Auto vars:     Size  Location     Type
  5106 ;;  pdata           1    8[COMMON] PTR volatile struct .
  5107 ;;		 -> g_data(39), 
  5108 ;; Return value:  Size  Location     Type
  5109 ;;                  1    wreg      void 
  5110 ;; Registers used:
  5111 ;;		wreg, fsr1l, fsr1h, status,2, status,0, pclath, cstack
  5112 ;; Tracked objects:
  5113 ;;		On entry : 0/0
  5114 ;;		On exit  : 0/0
  5115 ;;		Unchanged: 0/0
  5116 ;; Data sizes:     COMMON   BANK0   BANK1   BANK2   BANK3   BANK4   BANK5   BANK6   BANK7   BANK8   BANK9  BANK10  BANK1
      +1  BANK12
  5117 ;;      Params:         0       0       0       0       0       0       0       0       0       0       0       0       
      +0       0
  5118 ;;      Locals:         1       0       0       0       0       0       0       0       0       0       0       0       
      +0       0
  5119 ;;      Temps:          2       0       0       0       0       0       0       0       0       0       0       0       
      +0       0
  5120 ;;      Totals:         3       0       0       0       0       0       0       0       0       0       0       0       
      +0       0
  5121 ;;Total ram usage:        3 bytes
  5122 ;; Hardware stack levels used:    1
  5123 ;; Hardware stack levels required when called:    2
  5124 ;; This function calls:
  5125 ;;		___lwmod
  5126 ;;		_led_Blink
  5127 ;;		i1_data_getdata
  5128 ;; This function is called by:
  5129 ;;		_timer_Timer0Handdle
  5130 ;; This function uses a non-reentrant model
  5131 ;;
  5132                           
  5133                           
  5134                           ;psect for function _key_isPressed
  5135  0173                     _key_isPressed:	
  5136                           
  5137                           ;hardware.c: 125:     static u8 history_key = 0;;hardware.c: 126:     static u16 key_tim
      +                          e_cnt = 0;;hardware.c: 127:     G_DATA *pdata = data_getdata();
  5138                           
  5139                           ;incstack = 0
  5140                           ; Regs used in _key_isPressed: [wreg+fsr1l+fsr1h+status,2+status,0+pclath+cstack]
  5141  0173  3182  22F1  3181   	fcall	i1_data_getdata
  5142  0176  00F6               	movwf	??_key_isPressed
  5143  0177  0876               	movf	??_key_isPressed,w
  5144  0178  00F8               	movwf	key_isPressed@pdata
  5145                           
  5146                           ;hardware.c: 129:     if(key_time_cnt++ % 10 == 0)
  5147  0179  300A               	movlw	10
  5148  017A  00F0               	movwf	___lwmod@divisor
  5149  017B  3000               	movlw	0
  5150  017C  00F1               	movwf	___lwmod@divisor+1
  5151  017D  0020               	movlb	0	; select bank0
  5152  017E  0821               	movf	key_isPressed@key_time_cnt+1,w
  5153  017F  00F7               	movwf	??_key_isPressed+1
  5154  0180  0820               	movf	key_isPressed@key_time_cnt,w
  5155  0181  00F6               	movwf	??_key_isPressed
  5156  0182  0AA0               	incf	key_isPressed@key_time_cnt,f
  5157  0183  1903               	skipnz
  5158  0184  0AA1               	incf	key_isPressed@key_time_cnt+1,f
  5159  0185  0876               	movf	??_key_isPressed,w
  5160  0186  00F2               	movwf	___lwmod@dividend
  5161  0187  0877               	movf	??_key_isPressed+1,w
  5162  0188  00F3               	movwf	___lwmod@dividend+1
  5163  0189  3181  21B0  3181   	fcall	___lwmod
  5164  018C  0870               	movf	?___lwmod,w
  5165  018D  0471               	iorwf	?___lwmod+1,w
  5166  018E  1D03               	btfss	3,2
  5167  018F  0008               	return
  5168                           
  5169                           ;hardware.c: 130:     {;hardware.c: 131:         history_key <<= 1;
  5170  0190  1003               	clrc
  5171  0191  0020               	movlb	0	; select bank0
  5172  0192  0DAD               	rlf	key_isPressed@history_key,f
  5173                           
  5174                           ;hardware.c: 132:         history_key |= (PORTCbits.RC5 == PIN_HIGH)? 0x01 : 0x00;
  5175  0193  0E0E               	swapf	14,w	;volatile
  5176  0194  0C89               	rrf	9,f
  5177  0195  3901               	andlw	1
  5178  0196  00F6               	movwf	??_key_isPressed
  5179  0197  0876               	movf	??_key_isPressed,w
  5180  0198  04AD               	iorwf	key_isPressed@history_key,f
  5181                           
  5182                           ;hardware.c: 135:         if(((0x03) == (history_key & (0x0f))) && (FALSE == pdata->g_fl
      +                          g_switch))
  5183  0199  300F               	movlw	15
  5184  019A  052D               	andwf	key_isPressed@history_key,w
  5185  019B  00F6               	movwf	??_key_isPressed
  5186  019C  3003               	movlw	3
  5187  019D  0676               	xorwf	??_key_isPressed,w
  5188  019E  1D03               	btfss	3,2
  5189  019F  0008               	return
  5190  01A0  0878               	movf	key_isPressed@pdata,w
  5191  01A1  0086               	movwf	6
  5192  01A2  0187               	clrf	7
  5193  01A3  0801               	movf	1,w
  5194  01A4  1D03               	btfss	3,2
  5195  01A5  0008               	return
  5196                           
  5197                           ;hardware.c: 136:         {;hardware.c: 137:             pdata->g_flg_switch = TRUE;
  5198  01A6  3001               	movlw	1
  5199  01A7  00F6               	movwf	??_key_isPressed
  5200  01A8  0878               	movf	key_isPressed@pdata,w
  5201  01A9  0086               	movwf	6
  5202  01AA  0187               	clrf	7
  5203  01AB  0876               	movf	??_key_isPressed,w
  5204  01AC  0081               	movwf	1
  5205                           
  5206                           ;hardware.c: 139:             led_Blink();
  5207  01AD  3182  22B7         	fcall	_led_Blink
  5208                           
  5209                           ;hardware.c: 140:         }
  5210  01AF  0008               	return
  5211  01B0                     __end_of_key_isPressed:	
  5212                           ;hardware.c: 141:     }
  5213                           
  5214                           
  5215                           	psect	text19
  5216  02F1                     __ptext19:	
  5217 ;; *************** function i1_data_getdata *****************
  5218 ;; Defined at:
  5219 ;;		line 9 in file "data.c"
  5220 ;; Parameters:    Size  Location     Type
  5221 ;;		None
  5222 ;; Auto vars:     Size  Location     Type
  5223 ;;		None
  5224 ;; Return value:  Size  Location     Type
  5225 ;;                  1    wreg      PTR volatile struct .
  5226 ;; Registers used:
  5227 ;;		wreg
  5228 ;; Tracked objects:
  5229 ;;		On entry : 0/0
  5230 ;;		On exit  : 0/0
  5231 ;;		Unchanged: 0/0
  5232 ;; Data sizes:     COMMON   BANK0   BANK1   BANK2   BANK3   BANK4   BANK5   BANK6   BANK7   BANK8   BANK9  BANK10  BANK1
      +1  BANK12
  5233 ;;      Params:         0       0       0       0       0       0       0       0       0       0       0       0       
      +0       0
  5234 ;;      Locals:         0       0       0       0       0       0       0       0       0       0       0       0       
      +0       0
  5235 ;;      Temps:          0       0       0       0       0       0       0       0       0       0       0       0       
      +0       0
  5236 ;;      Totals:         0       0       0       0       0       0       0       0       0       0       0       0       
      +0       0
  5237 ;;Total ram usage:        0 bytes
  5238 ;; Hardware stack levels used:    1
  5239 ;; This function calls:
  5240 ;;		Nothing
  5241 ;; This function is called by:
  5242 ;;		_key_isPressed
  5243 ;; This function uses a non-reentrant model
  5244 ;;
  5245                           
  5246                           
  5247                           ;psect for function i1_data_getdata
  5248  02F1                     i1_data_getdata:	
  5249                           
  5250                           ;data.c: 11:     return &g_data;
  5251                           
  5252                           ;incstack = 0
  5253                           ; Regs used in i1_data_getdata: [wreg]
  5254  02F1  30A0               	movlw	(low (_g_data| 0))& (0+255)
  5255  02F2  0008               	return
  5256  02F3                     __end_ofi1_data_getdata:	
  5257                           
  5258                           	psect	text20
  5259  02B7                     __ptext20:	
  5260 ;; *************** function _led_Blink *****************
  5261 ;; Defined at:
  5262 ;;		line 113 in file "hardware.c"
  5263 ;; Parameters:    Size  Location     Type
  5264 ;;		None
  5265 ;; Auto vars:     Size  Location     Type
  5266 ;;		None
  5267 ;; Return value:  Size  Location     Type
  5268 ;;                  1    wreg      unsigned char 
  5269 ;; Registers used:
  5270 ;;		wreg, status,2, status,0, pclath, cstack
  5271 ;; Tracked objects:
  5272 ;;		On entry : 0/0
  5273 ;;		On exit  : 0/0
  5274 ;;		Unchanged: 0/0
  5275 ;; Data sizes:     COMMON   BANK0   BANK1   BANK2   BANK3   BANK4   BANK5   BANK6   BANK7   BANK8   BANK9  BANK10  BANK1
      +1  BANK12
  5276 ;;      Params:         0       0       0       0       0       0       0       0       0       0       0       0       
      +0       0
  5277 ;;      Locals:         0       0       0       0       0       0       0       0       0       0       0       0       
      +0       0
  5278 ;;      Temps:          1       0       0       0       0       0       0       0       0       0       0       0       
      +0       0
  5279 ;;      Totals:         1       0       0       0       0       0       0       0       0       0       0       0       
      +0       0
  5280 ;;Total ram usage:        1 bytes
  5281 ;; Hardware stack levels used:    1
  5282 ;; Hardware stack levels required when called:    1
  5283 ;; This function calls:
  5284 ;;		i1_led_SetState
  5285 ;; This function is called by:
  5286 ;;		_ISR
  5287 ;;		_key_isPressed
  5288 ;; This function uses a non-reentrant model
  5289 ;;
  5290                           
  5291                           
  5292                           ;psect for function _led_Blink
  5293  02B7                     _led_Blink:	
  5294                           
  5295                           ;hardware.c: 115:     static u8 State = 0;;hardware.c: 116:     led_SetState(State++ & 0
      +                          x01);
  5296                           
  5297                           ;incstack = 0
  5298                           ; Regs used in _led_Blink: [wreg+status,2+status,0+pclath+cstack]
  5299  02B7  0020               	movlb	0	; select bank0
  5300  02B8  082E               	movf	led_Blink@State,w
  5301  02B9  3901               	andlw	1
  5302  02BA  3182  22C2         	fcall	i1_led_SetState
  5303  02BC  3001               	movlw	1
  5304  02BD  00F1               	movwf	??_led_Blink
  5305  02BE  0871               	movf	??_led_Blink,w
  5306  02BF  0020               	movlb	0	; select bank0
  5307  02C0  07AE               	addwf	led_Blink@State,f
  5308  02C1  0008               	return
  5309  02C2                     __end_of_led_Blink:	
  5310                           ;hardware.c: 117:     return 0;;	Return value of _led_Blink is never used
  5311                           
  5312                           
  5313                           	psect	text21
  5314  02C2                     __ptext21:	
  5315 ;; *************** function i1_led_SetState *****************
  5316 ;; Defined at:
  5317 ;;		line 107 in file "hardware.c"
  5318 ;; Parameters:    Size  Location     Type
  5319 ;;  isOn            1    wreg     unsigned char 
  5320 ;; Auto vars:     Size  Location     Type
  5321 ;;  isOn            1    0[COMMON] unsigned char 
  5322 ;; Return value:  Size  Location     Type
  5323 ;;                  1    wreg      unsigned char 
  5324 ;; Registers used:
  5325 ;;		wreg, status,2, status,0
  5326 ;; Tracked objects:
  5327 ;;		On entry : 0/0
  5328 ;;		On exit  : 0/0
  5329 ;;		Unchanged: 0/0
  5330 ;; Data sizes:     COMMON   BANK0   BANK1   BANK2   BANK3   BANK4   BANK5   BANK6   BANK7   BANK8   BANK9  BANK10  BANK1
      +1  BANK12
  5331 ;;      Params:         0       0       0       0       0       0       0       0       0       0       0       0       
      +0       0
  5332 ;;      Locals:         1       0       0       0       0       0       0       0       0       0       0       0       
      +0       0
  5333 ;;      Temps:          0       0       0       0       0       0       0       0       0       0       0       0       
      +0       0
  5334 ;;      Totals:         1       0       0       0       0       0       0       0       0       0       0       0       
      +0       0
  5335 ;;Total ram usage:        1 bytes
  5336 ;; Hardware stack levels used:    1
  5337 ;; This function calls:
  5338 ;;		Nothing
  5339 ;; This function is called by:
  5340 ;;		_led_Blink
  5341 ;; This function uses a non-reentrant model
  5342 ;;
  5343                           
  5344                           
  5345                           ;psect for function i1_led_SetState
  5346  02C2                     i1_led_SetState:	
  5347                           
  5348                           ;incstack = 0
  5349                           ; Regs used in i1_led_SetState: [wreg+status,2+status,0]
  5350                           ;i1led_SetState@isOn stored from wreg
  5351  02C2  00F0               	movwf	i1led_SetState@isOn
  5352                           
  5353                           ;hardware.c: 107: u8 led_SetState(u8 isOn);hardware.c: 108: {;hardware.c: 109:     LATBb
      +                          its.LATB3 = (isOn)? LED_STATE_ON : LED_STATE_OFF;
  5354  02C3  0870               	movf	i1led_SetState@isOn,w
  5355  02C4  1D03               	btfss	3,2
  5356  02C5  2AC9               	goto	u129_20
  5357  02C6  0022               	movlb	2	; select bank2
  5358  02C7  158D               	bsf	13,3	;volatile
  5359  02C8  0008               	return
  5360  02C9                     u129_20:	
  5361  02C9  0022               	movlb	2	; select bank2
  5362  02CA  118D               	bcf	13,3	;volatile
  5363  02CB  0008               	return
  5364  02CC                     __end_ofi1_led_SetState:	
  5365                           ;hardware.c: 110:     return 0;;	Return value of i1_led_SetState is never used
  5366                           
  5367                           
  5368                           	psect	text22
  5369  01B0                     __ptext22:	
  5370 ;; *************** function ___lwmod *****************
  5371 ;; Defined at:
  5372 ;;		line 5 in file "F:\other_software\MPLAB_X_IDE\xc8\v2.00\pic\sources\c99\common\lwmod.c"
  5373 ;; Parameters:    Size  Location     Type
  5374 ;;  divisor         2    0[COMMON] unsigned int 
  5375 ;;  dividend        2    2[COMMON] unsigned int 
  5376 ;; Auto vars:     Size  Location     Type
  5377 ;;  counter         1    5[COMMON] unsigned char 
  5378 ;; Return value:  Size  Location     Type
  5379 ;;                  2    0[COMMON] unsigned int 
  5380 ;; Registers used:
  5381 ;;		wreg, status,2, status,0
  5382 ;; Tracked objects:
  5383 ;;		On entry : 0/0
  5384 ;;		On exit  : 0/0
  5385 ;;		Unchanged: 0/0
  5386 ;; Data sizes:     COMMON   BANK0   BANK1   BANK2   BANK3   BANK4   BANK5   BANK6   BANK7   BANK8   BANK9  BANK10  BANK1
      +1  BANK12
  5387 ;;      Params:         4       0       0       0       0       0       0       0       0       0       0       0       
      +0       0
  5388 ;;      Locals:         1       0       0       0       0       0       0       0       0       0       0       0       
      +0       0
  5389 ;;      Temps:          1       0       0       0       0       0       0       0       0       0       0       0       
      +0       0
  5390 ;;      Totals:         6       0       0       0       0       0       0       0       0       0       0       0       
      +0       0
  5391 ;;Total ram usage:        6 bytes
  5392 ;; Hardware stack levels used:    1
  5393 ;; This function calls:
  5394 ;;		Nothing
  5395 ;; This function is called by:
  5396 ;;		_ISR
  5397 ;;		_key_isPressed
  5398 ;;		_tmp_change
  5399 ;; This function uses a non-reentrant model
  5400 ;;
  5401                           
  5402                           
  5403                           ;psect for function ___lwmod
  5404  01B0                     ___lwmod:	
  5405                           
  5406                           ;incstack = 0
  5407                           ; Regs used in ___lwmod: [wreg+status,2+status,0]
  5408  01B0  0870               	movf	___lwmod@divisor,w
  5409  01B1  0471               	iorwf	___lwmod@divisor+1,w
  5410  01B2  1903               	btfsc	3,2
  5411  01B3  29D7               	goto	i1l2059
  5412  01B4  01F5               	clrf	___lwmod@counter
  5413  01B5  0AF5               	incf	___lwmod@counter,f
  5414  01B6                     i1l2049:	
  5415  01B6  1BF1               	btfsc	___lwmod@divisor+1,7
  5416  01B7  29C2               	goto	i1l2051
  5417  01B8  3001               	movlw	1
  5418  01B9                     u135_25:	
  5419  01B9  35F0               	lslf	___lwmod@divisor,f
  5420  01BA  0DF1               	rlf	___lwmod@divisor+1,f
  5421  01BB  0B89               	decfsz	9,f
  5422  01BC  29B9               	goto	u135_25
  5423  01BD  3001               	movlw	1
  5424  01BE  00F4               	movwf	??___lwmod
  5425  01BF  0874               	movf	??___lwmod,w
  5426  01C0  07F5               	addwf	___lwmod@counter,f
  5427  01C1  29B6               	goto	i1l2049
  5428  01C2                     i1l2051:	
  5429  01C2  0871               	movf	___lwmod@divisor+1,w
  5430  01C3  0273               	subwf	___lwmod@dividend+1,w
  5431  01C4  1D03               	skipz
  5432  01C5  29C8               	goto	u137_25
  5433  01C6  0870               	movf	___lwmod@divisor,w
  5434  01C7  0272               	subwf	___lwmod@dividend,w
  5435  01C8                     u137_25:	
  5436  01C8  1C03               	skipc
  5437  01C9  29CE               	goto	i1l2055
  5438  01CA  0870               	movf	___lwmod@divisor,w
  5439  01CB  02F2               	subwf	___lwmod@dividend,f
  5440  01CC  0871               	movf	___lwmod@divisor+1,w
  5441  01CD  3BF3               	subwfb	___lwmod@dividend+1,f
  5442  01CE                     i1l2055:	
  5443  01CE  3001               	movlw	1
  5444  01CF                     u138_25:	
  5445  01CF  36F1               	lsrf	___lwmod@divisor+1,f
  5446  01D0  0CF0               	rrf	___lwmod@divisor,f
  5447  01D1  0B89               	decfsz	9,f
  5448  01D2  29CF               	goto	u138_25
  5449  01D3  3001               	movlw	1
  5450  01D4  02F5               	subwf	___lwmod@counter,f
  5451  01D5  1D03               	btfss	3,2
  5452  01D6  29C2               	goto	i1l2051
  5453  01D7                     i1l2059:	
  5454  01D7  0873               	movf	___lwmod@dividend+1,w
  5455  01D8  00F1               	movwf	?___lwmod+1
  5456  01D9  0872               	movf	___lwmod@dividend,w
  5457  01DA  00F0               	movwf	?___lwmod
  5458  01DB  0008               	return
  5459  01DC                     __end_of___lwmod:	
  5460                           
  5461                           	psect	text23
  5462  02E8                     __ptext23:	
  5463 ;; *************** function _timer_IsTimer0Itrpt *****************
  5464 ;; Defined at:
  5465 ;;		line 102 in file "timer.c"
  5466 ;; Parameters:    Size  Location     Type
  5467 ;;		None
  5468 ;; Auto vars:     Size  Location     Type
  5469 ;;		None
  5470 ;; Return value:  Size  Location     Type
  5471 ;;                  1    wreg      enum E5222
  5472 ;; Registers used:
  5473 ;;		wreg, status,2, status,0
  5474 ;; Tracked objects:
  5475 ;;		On entry : 0/0
  5476 ;;		On exit  : 0/0
  5477 ;;		Unchanged: 0/0
  5478 ;; Data sizes:     COMMON   BANK0   BANK1   BANK2   BANK3   BANK4   BANK5   BANK6   BANK7   BANK8   BANK9  BANK10  BANK1
      +1  BANK12
  5479 ;;      Params:         0       0       0       0       0       0       0       0       0       0       0       0       
      +0       0
  5480 ;;      Locals:         0       0       0       0       0       0       0       0       0       0       0       0       
      +0       0
  5481 ;;      Temps:          0       0       0       0       0       0       0       0       0       0       0       0       
      +0       0
  5482 ;;      Totals:         0       0       0       0       0       0       0       0       0       0       0       0       
      +0       0
  5483 ;;Total ram usage:        0 bytes
  5484 ;; Hardware stack levels used:    1
  5485 ;; This function calls:
  5486 ;;		Nothing
  5487 ;; This function is called by:
  5488 ;;		_ISR
  5489 ;; This function uses a non-reentrant model
  5490 ;;
  5491                           
  5492                           
  5493                           ;psect for function _timer_IsTimer0Itrpt
  5494  02E8                     _timer_IsTimer0Itrpt:	
  5495                           
  5496                           ;timer.c: 104:     return (INTCONbits.TMR0IF == 0b1)? TRUE : FALSE;
  5497                           
  5498                           ;incstack = 0
  5499                           ; Regs used in _timer_IsTimer0Itrpt: [wreg+status,2+status,0]
  5500  02E8  0C0B               	rrf	11,w	;volatile
  5501  02E9  0C89               	rrf	9,f
  5502  02EA  3901               	andlw	1
  5503  02EB  0008               	return
  5504  02EC                     __end_of_timer_IsTimer0Itrpt:	
  5505                           
  5506                           	psect	text24
  5507  0294                     __ptext24:	
  5508 ;; *************** function _ISR_uart_TX *****************
  5509 ;; Defined at:
  5510 ;;		line 62 in file "uart.c"
  5511 ;; Parameters:    Size  Location     Type
  5512 ;;		None
  5513 ;; Auto vars:     Size  Location     Type
  5514 ;;		None
  5515 ;; Return value:  Size  Location     Type
  5516 ;;                  1    wreg      void 
  5517 ;; Registers used:
  5518 ;;		wreg, status,2, status,0
  5519 ;; Tracked objects:
  5520 ;;		On entry : 0/0
  5521 ;;		On exit  : 0/0
  5522 ;;		Unchanged: 0/0
  5523 ;; Data sizes:     COMMON   BANK0   BANK1   BANK2   BANK3   BANK4   BANK5   BANK6   BANK7   BANK8   BANK9  BANK10  BANK1
      +1  BANK12
  5524 ;;      Params:         0       0       0       0       0       0       0       0       0       0       0       0       
      +0       0
  5525 ;;      Locals:         0       0       0       0       0       0       0       0       0       0       0       0       
      +0       0
  5526 ;;      Temps:          0       0       0       0       0       0       0       0       0       0       0       0       
      +0       0
  5527 ;;      Totals:         0       0       0       0       0       0       0       0       0       0       0       0       
      +0       0
  5528 ;;Total ram usage:        0 bytes
  5529 ;; Hardware stack levels used:    1
  5530 ;; This function calls:
  5531 ;;		Nothing
  5532 ;; This function is called by:
  5533 ;;		_ISR
  5534 ;; This function uses a non-reentrant model
  5535 ;;
  5536                           
  5537                           
  5538                           ;psect for function _ISR_uart_TX
  5539  0294                     _ISR_uart_TX:	
  5540                           
  5541                           ;uart.c: 64:     if(TX_en)
  5542                           
  5543                           ;incstack = 0
  5544                           ; Regs used in _ISR_uart_TX: [wreg+status,2+status,0]
  5545  0294  0020               	movlb	0	; select bank0
  5546  0295  0831               	movf	_TX_en,w
  5547  0296  1903               	btfsc	3,2
  5548  0297  2A9E               	goto	i1l332
  5549                           
  5550                           ;uart.c: 65:     {;uart.c: 66:         TXREG = TX_data;
  5551  0298  0833               	movf	_TX_data,w
  5552  0299  0023               	movlb	3	; select bank3
  5553  029A  009A               	movwf	26	;volatile
  5554                           
  5555                           ;uart.c: 67:         TX_en = 0;
  5556  029B  0020               	movlb	0	; select bank0
  5557  029C  01B1               	clrf	_TX_en
  5558                           
  5559                           ;uart.c: 68:     }
  5560  029D  0008               	return
  5561  029E                     i1l332:	
  5562                           ;uart.c: 69:     else
  5563                           
  5564                           
  5565                           ;uart.c: 70:     {;uart.c: 72:         TXIE = 0;
  5566  029E  0021               	movlb	1	; select bank1
  5567  029F  1211               	bcf	17,4	;volatile
  5568  02A0  0008               	return
  5569  02A1                     __end_of_ISR_uart_TX:	
  5570                           ;uart.c: 73:     }
  5571                           
  5572  007E                     btemp	set	126	;btemp
  5573  007E                     int$flags	set	126
  5574  007E                     wtemp0	set	126


Data Sizes:
    Strings     0
    Constant    11
    Data        0
    BSS         64
    Persistent  0
    Stack       0

Auto Spaces:
    Space          Size  Autos    Used
    COMMON           14     11      14
    BANK0            80     22      44
    BANK1            80      0      39
    BANK2            80      0       0
    BANK3            80      0       0
    BANK4            80      0       0
    BANK5            80      0       0
    BANK6            80      0       0
    BANK7            80      0       0
    BANK8            80      0       0
    BANK9            80      0       0
    BANK10           80      0       0
    BANK11           80      0       0
    BANK12           48      0       0

Pointer List with Targets:

    key_isPressed@pdata	PTR volatile struct . size(1) Largest target is 39
		 -> g_data(BANK1[39]), 

    sp__data_getdata	PTR volatile struct . size(1) Largest target is 39
		 -> g_data(BANK1[39]), 

    init_env@pdata	PTR volatile struct . size(1) Largest target is 39
		 -> g_data(BANK1[39]), 


Critical Paths under _main in COMMON

    None.

Critical Paths under _ISR in COMMON

    _timer_Timer0Handdle->_key_isPressed
    _key_isPressed->___lwmod
    _led_Blink->i1_led_SetState

Critical Paths under _main in BANK0

    _main->_display_update
    _init_env->_display_set
    _display_update->_display_write_once
    _display_write_once->___awmod
    _display_write_byte->_display_control595_delay

Critical Paths under _ISR in BANK0

    None.

Critical Paths under _main in BANK1

    None.

Critical Paths under _ISR in BANK1

    None.

Critical Paths under _main in BANK2

    None.

Critical Paths under _ISR in BANK2

    None.

Critical Paths under _main in BANK3

    None.

Critical Paths under _ISR in BANK3

    None.

Critical Paths under _main in BANK4

    None.

Critical Paths under _ISR in BANK4

    None.

Critical Paths under _main in BANK5

    None.

Critical Paths under _ISR in BANK5

    None.

Critical Paths under _main in BANK6

    None.

Critical Paths under _ISR in BANK6

    None.

Critical Paths under _main in BANK7

    None.

Critical Paths under _ISR in BANK7

    None.

Critical Paths under _main in BANK8

    None.

Critical Paths under _ISR in BANK8

    None.

Critical Paths under _main in BANK9

    None.

Critical Paths under _ISR in BANK9

    None.

Critical Paths under _main in BANK10

    None.

Critical Paths under _ISR in BANK10

    None.

Critical Paths under _main in BANK11

    None.

Critical Paths under _ISR in BANK11

    None.

Critical Paths under _main in BANK12

    None.

Critical Paths under _ISR in BANK12

    None.

Call Graph Tables:

 ---------------------------------------------------------------------------------
 (Depth) Function   	        Calls       Base Space   Used Autos Params    Refs
 ---------------------------------------------------------------------------------
 (0) _main                                                 0     0      0    1494
                        _display_set
                     _display_update
                           _init_env
                       _led_SetState
                   _timer_Timer0Init
                  _timer_Timer0Start
                          _uart_init
 ---------------------------------------------------------------------------------
 (1) _uart_init                                            0     0      0       0
 ---------------------------------------------------------------------------------
 (1) _timer_Timer0Start                                    0     0      0       0
                  _timer_Timer0Reset
 ---------------------------------------------------------------------------------
 (2) _timer_Timer0Reset                                    0     0      0       0
 ---------------------------------------------------------------------------------
 (1) _timer_Timer0Init                                     0     0      0       0
 ---------------------------------------------------------------------------------
 (1) _led_SetState                                         1     1      0      22
                                              0 BANK0      1     1      0
 ---------------------------------------------------------------------------------
 (1) _init_env                                             5     5      0     113
                                              1 BANK0      5     5      0
                       _data_getdata
                        _display_set
 ---------------------------------------------------------------------------------
 (2) _display_set                                          1     1      0      22
                                              0 BANK0      1     1      0
 ---------------------------------------------------------------------------------
 (2) _data_getdata                                         0     0      0       0
 ---------------------------------------------------------------------------------
 (1) _display_update                                      11    11      0    1337
                                             11 BANK0     11    11      0
                            ___awmod
                 _display_write_once
 ---------------------------------------------------------------------------------
 (2) _display_write_once                                   4     1      3     433
                                              7 BANK0      4     1      3
                            ___awmod (ARG)
           _display_control595_delay
                 _display_write_byte
 ---------------------------------------------------------------------------------
 (3) _display_write_byte                                   4     4      0      93
                                              2 BANK0      4     4      0
           _display_control595_delay
 ---------------------------------------------------------------------------------
 (4) _display_control595_delay                             2     2      0      24
                                              0 BANK0      2     2      0
 ---------------------------------------------------------------------------------
 (2) ___awmod                                              7     3      4     904
                                              0 BANK0      7     3      4
 ---------------------------------------------------------------------------------
 Estimated maximum stack depth 4
 ---------------------------------------------------------------------------------
 (Depth) Function   	        Calls       Base Space   Used Autos Params    Refs
 ---------------------------------------------------------------------------------
 (5) _ISR                                                  2     2      0    1341
                                              9 COMMON     2     2      0
                        _ISR_uart_TX
                            ___lwmod
                          _led_Blink
                _timer_IsTimer0Itrpt
                _timer_Timer0Handdle
                     _uart_Send_byte
                i1_timer_Timer0Reset
 ---------------------------------------------------------------------------------
 (6) i1_timer_Timer0Reset                                  0     0      0       0
 ---------------------------------------------------------------------------------
 (6) _uart_Send_byte                                       2     2      0      22
                                              0 COMMON     2     2      0
 ---------------------------------------------------------------------------------
 (6) _timer_Timer0Handdle                                  0     0      0     682
                      _key_isPressed
 ---------------------------------------------------------------------------------
 (7) _key_isPressed                                        3     3      0     682
                                              6 COMMON     3     3      0
                            ___lwmod
                          _led_Blink
                     i1_data_getdata
 ---------------------------------------------------------------------------------
 (8) i1_data_getdata                                       0     0      0       0
 ---------------------------------------------------------------------------------
 (8) _led_Blink                                            1     1      0      22
                                              1 COMMON     1     1      0
                     i1_led_SetState
 ---------------------------------------------------------------------------------
 (9) i1_led_SetState                                       1     1      0      22
                                              0 COMMON     1     1      0
 ---------------------------------------------------------------------------------
 (8) ___lwmod                                              6     2      4     615
                                              0 COMMON     6     2      4
 ---------------------------------------------------------------------------------
 (6) _timer_IsTimer0Itrpt                                  0     0      0       0
 ---------------------------------------------------------------------------------
 (6) _ISR_uart_TX                                          0     0      0       0
 ---------------------------------------------------------------------------------
 Estimated maximum stack depth 9
 ---------------------------------------------------------------------------------

 Call Graph Graphs:

 _main (ROOT)
   _display_set
   _display_update
     ___awmod
     _display_write_once
       ___awmod (ARG)
       _display_control595_delay (ARG)
       _display_write_byte (ARG)
         _display_control595_delay
   _init_env
     _data_getdata
     _display_set
   _led_SetState
   _timer_Timer0Init
   _timer_Timer0Start
     _timer_Timer0Reset
   _uart_init

 _ISR (ROOT)
   _ISR_uart_TX
   ___lwmod
   _led_Blink
     i1_led_SetState
   _timer_IsTimer0Itrpt
   _timer_Timer0Handdle
     _key_isPressed
       ___lwmod
       _led_Blink
         i1_led_SetState
       i1_data_getdata
   _uart_Send_byte
   i1_timer_Timer0Reset

 Address spaces:
Name               Size   Autos  Total    Cost      Usage
BIGRAM             3F0      0       0       0        0.0%
EEDATA             100      0       0       0        0.0%
NULL                 0      0       0       0        0.0%
CODE                 0      0       0       0        0.0%
BITCOMMON            E      0       0       1        0.0%
BITSFR0              0      0       0       1        0.0%
SFR0                 0      0       0       1        0.0%
COMMON               E      B       E       2      100.0%
BITSFR1              0      0       0       2        0.0%
SFR1                 0      0       0       2        0.0%
BITSFR2              0      0       0       3        0.0%
SFR2                 0      0       0       3        0.0%
STACK                0      0       0       3        0.0%
BITBANK0            50      0       0       4        0.0%
BITSFR3              0      0       0       4        0.0%
SFR3                 0      0       0       4        0.0%
BANK0               50     16      2C       5       55.0%
BITSFR4              0      0       0       5        0.0%
SFR4                 0      0       0       5        0.0%
BITBANK1            50      0       0       6        0.0%
BITSFR5              0      0       0       6        0.0%
SFR5                 0      0       0       6        0.0%
BANK1               50      0      27       7       48.8%
BITSFR6              0      0       0       7        0.0%
SFR6                 0      0       0       7        0.0%
BITBANK2            50      0       0       8        0.0%
BITSFR7              0      0       0       8        0.0%
SFR7                 0      0       0       8        0.0%
BANK2               50      0       0       9        0.0%
BITSFR8              0      0       0       9        0.0%
SFR8                 0      0       0       9        0.0%
BITBANK3            50      0       0      10        0.0%
BITSFR9              0      0       0      10        0.0%
SFR9                 0      0       0      10        0.0%
BANK3               50      0       0      11        0.0%
BITSFR10             0      0       0      11        0.0%
SFR10                0      0       0      11        0.0%
BITBANK4            50      0       0      12        0.0%
BITSFR11             0      0       0      12        0.0%
SFR11                0      0       0      12        0.0%
BANK4               50      0       0      13        0.0%
BITSFR12             0      0       0      13        0.0%
SFR12                0      0       0      13        0.0%
BITBANK5            50      0       0      14        0.0%
BITSFR13             0      0       0      14        0.0%
SFR13                0      0       0      14        0.0%
BANK5               50      0       0      15        0.0%
BITSFR14             0      0       0      15        0.0%
SFR14                0      0       0      15        0.0%
BITBANK6            50      0       0      16        0.0%
BITSFR15             0      0       0      16        0.0%
SFR15                0      0       0      16        0.0%
BANK6               50      0       0      17        0.0%
BITSFR16             0      0       0      17        0.0%
SFR16                0      0       0      17        0.0%
BITBANK7            50      0       0      18        0.0%
BITSFR17             0      0       0      18        0.0%
SFR17                0      0       0      18        0.0%
BANK7               50      0       0      19        0.0%
BITSFR18             0      0       0      19        0.0%
SFR18                0      0       0      19        0.0%
BITSFR19             0      0       0      20        0.0%
SFR19                0      0       0      20        0.0%
ABS                  0      0      61      20        0.0%
BITBANK8            50      0       0      21        0.0%
BITSFR20             0      0       0      21        0.0%
SFR20                0      0       0      21        0.0%
BANK8               50      0       0      22        0.0%
BITSFR21             0      0       0      22        0.0%
SFR21                0      0       0      22        0.0%
BITBANK9            50      0       0      23        0.0%
BITSFR22             0      0       0      23        0.0%
SFR22                0      0       0      23        0.0%
BANK9               50      0       0      24        0.0%
BITSFR23             0      0       0      24        0.0%
SFR23                0      0       0      24        0.0%
BITBANK10           50      0       0      25        0.0%
BITSFR24             0      0       0      25        0.0%
SFR24                0      0       0      25        0.0%
BANK10              50      0       0      26        0.0%
BITSFR25             0      0       0      26        0.0%
SFR25                0      0       0      26        0.0%
BITBANK11           50      0       0      27        0.0%
BITSFR26             0      0       0      27        0.0%
SFR26                0      0       0      27        0.0%
BANK11              50      0       0      28        0.0%
BITSFR27             0      0       0      28        0.0%
SFR27                0      0       0      28        0.0%
BITBANK12           30      0       0      29        0.0%
BITSFR28             0      0       0      29        0.0%
SFR28                0      0       0      29        0.0%
BANK12              30      0       0      30        0.0%
BITSFR29             0      0       0      30        0.0%
SFR29                0      0       0      30        0.0%
BITSFR30             0      0       0      31        0.0%
SFR30                0      0       0      31        0.0%
DATA                 0      0      61      31        0.0%
BITSFR31             0      0       0      32        0.0%
SFR31                0      0       0      32        0.0%


Microchip Technology PIC Macro Assembler V2.00 build -1524193055 
Symbol Table                                                                                   Sun Jun 16 23:14:26 2019

                      __CFG_CP$OFF 0000                                 l86 0121  
                     ?_display_set 0070                        __CFG_LVP$ON 0000  
                              l355 028C                                _GIE 005F  
                              _RC4 0074                       __CFG_CPD$OFF 0000  
                              _ISR 0004                       ___awmod@sign 003C  
           __end_of_display_update 00C1                       __CFG_BORV$LO 0000  
                              wreg 0009                       __CFG_IESO$ON 0000  
                     __CFG_FOSC$HS 0000                     ??_led_SetState 0036  
             __end_of_data_getdata 02F1                               ?_ISR 0070  
                             l2205 0138                               l2231 016E  
                             l2223 015D                               l2217 0145  
                             l2209 013F                               l2219 0151  
                             l2227 0166                               l2291 0106  
                             l2757 0240                               _BRGH 0CF2  
                             _CREN 0CEC                               u1325 01E6  
                             _LATA 010C                               _LATB 010D  
                             _LATC 010E                               u1605 015E  
                             _ENUM 0035                               u1635 0104  
                             u1660 02B4                               u1645 011F  
                             u1575 0148                               u1595 0157  
                             _PEIE 005E                               _RCIE 048D  
                             _TMR0 0015                               _SPEN 0CEF  
                             _TXIE 048C                               _TXEN 0CF5  
                             _TXIF 008C                               _SYNC 0CF4  
                             _WPUA 020C                               _WPUB 020D  
                             _WPUC 020E                       __CFG_WRT$OFF 0000  
                    __CFG_FCMEN$ON 0000                               _Temp 0024  
                             _main 022D                               fsr0h 0005  
                             fsr1h 0007                               indf0 0000  
                             fsr0l 0004                               indf1 0001  
                             fsr1l 0006                               btemp 007E  
                    __CFG_BOREN$ON 0000                               start 0037  
                    __CFG_MCLRE$ON 0000                i1_timer_Timer0Reset 02DF  
                            ??_ISR 0079                      __CFG_PLLEN$ON 0000  
         __end_of_timer_Timer0Init 0287                              ?_main 0070  
                            _BRG16 0CFB                      __CFG_WDTE$OFF 0000  
                  __end_of___awmod 0173                              _LATC3 0873  
                            _LATC4 0874                              _IOCAN 0392  
                            _IOCAP 0391                              _IOCBN 0395  
                            _IOCBP 0394                              _IOCCN 0398  
                            _IOCCP 0397                              i1l120 0035  
                            i1l118 002D                              i1l332 029E  
                  __end_of___lwmod 01DC                              _RCREG 0199  
                            _TMR1H 0017                              _TMR1L 0016  
                            _TRISA 008C                              _TRISB 008D  
                            _TRISC 008E                              _WPUC3 1073  
                            _WPUC4 1074                              _RXSEL 08E9  
                            _TXREG 019A                              _TXSEL 08EA  
                  ?_display_update 0070                              _TX_en 0031  
             ?i1_timer_Timer0Reset 0070                _timer_IsTimer0Itrpt 02E8  
                            main@i 0026                              status 0003  
                            wtemp0 007E               ?_timer_IsTimer0Itrpt 0070  
                  __initialization 0039                       __end_of_main 024E  
             display_write_once@HL 0040               display_write_once@HR 003D  
             display_write_once@ML 003E               display_write_once@MR 003F  
                   __CFG_LPBOR$OFF 0000            __size_ofi1_data_getdata 0002  
                           ??_main 004C              ??i1_timer_Timer0Reset 0070  
                           ISR@cnt 0028             __size_of_key_isPressed 003D  
                           _CCPR2H 0299                             _CCPR2L 0298  
                           i1l2051 01C2                             i1l2055 01CE  
                           i1l2049 01B6                             i1l2059 01D7  
                           i1l2741 0030                             u135_25 01B9  
                           u129_20 02C9                             u137_25 01C8  
                           u138_25 01CF                             _SPBRGH 019C  
                           _SPBRGL 019B                             _TRISC3 0473  
                           _TRISC4 0474                     __CFG_PWRTE$OFF 0000  
            ??_timer_IsTimer0Itrpt 0070                       ?_ISR_uart_TX 0070  
        key_isPressed@key_time_cnt 0020               __end_of_led_SetState 02B7  
                           _g_data 00A0                     __CFG_STVREN$ON 0000  
      __end_of_timer_Timer0Handdle 02EF                          ??___awmod 003A  
       ??_display_control595_delay 0036                             _flg_rc 0030  
                        ??___lwmod 0074                   __end_of_init_env 012D  
                  ___awmod@divisor 0036                             _temp_h 007C  
                           _temp_l 007B                    ___awmod@counter 003B  
             __size_of_display_set 0008                   __end_of_segmcode 02AC  
            __size_of_data_getdata 0002            __end_of__initialization 004B  
                   __pcstackCOMMON 0070                      _key_isPressed 0173  
                     _data_getdata 02EF         __end_of_display_write_byte 0207  
       __end_of_display_write_once 022D                   led_SetState@isOn 0036  
                   _OPTION_REGbits 0095                 __size_of_led_Blink 000B  
            tmp_change@history_key 007D            capture_handdle@last_cnt 0022  
                       __pbssBANK0 0020                         __pbssBANK1 00A0  
          __size_ofi1_led_SetState 000A                    __CFG_VCAPEN$OFF 0000  
                   ?_key_isPressed 0070                         __pmaintext 022D  
                       __pintentry 0004                     i1_data_getdata 02F1  
                 ??_display_update 0041                  ?_timer_Timer0Init 0070  
               __size_of_uart_init 001C                            _ODCONC3 1473  
                          _ODCONC4 1474            __size_of_uart_Send_byte 0010  
               ??_timer_Timer0Init 0036                            _RX_data 0032  
                        ?_init_env 0070                            _TX_data 0033  
            __size_of_led_SetState 000B                  __end_of_led_Blink 02C2  
 __end_of_display_control595_delay 0294             __end_ofi1_data_getdata 02F3  
                          ___awmod 012D                            ___lwmod 01B0  
             __size_of_ISR_uart_TX 000D                            __ptext1 024E  
                          __ptext2 02E4                            __ptext3 02DA  
                          __ptext4 027A                            __ptext5 02AC  
                          __ptext6 00C1                            __ptext7 02CC  
                          __ptext8 02EF                            __ptext9 004F  
                     __size_of_ISR 0033                          _T1CONbits 0018  
                 ___awmod@dividend 0038                          _IOCCFbits 0399  
                        _IOCCPbits 0397                            main@cnt 0034  
                          clrloop0 02D5                       _led_SetState 02AC  
             end_of_initialization 004B                 uart_Send_byte@byte 0071  
                       ??_init_env 0037                    ??_key_isPressed 0076  
                __end_of_uart_init 026A                 i1led_SetState@isOn 0070  
                  ?i1_data_getdata 0070        __end_ofi1_timer_Timer0Reset 02E4  
                        _PORTAbits 000C                          _PORTCbits 000E  
                        _TRISCbits 008E        __end_of_timer_IsTimer0Itrpt 02EC  
                   i1_led_SetState 02C2                        _CCP2CONbits 029A  
                    ??_display_set 0036                     _uart_Send_byte 026A  
     __size_of_timer_Timer0Handdle 0003                start_initialization 0039  
            receive_decode@cnt_low 002C                        __end_of_ISR 0037  
              display_write_byte@i 003B  __size_of_display_control595_delay 000D  
               _display_write_byte 01DC             display_write_byte@data 003A  
               _display_write_once 0207          ?_display_control595_delay 0070  
           __end_ofi1_led_SetState 02CC             tmp_change@key_time_cnt 002A  
              ?_display_write_byte 0070                ?_display_write_once 003D  
           __end_of_uart_Send_byte 027A               ??_display_write_byte 0038  
             ??_display_write_once 0040                __end_of_display_set 02D4  
                      __pbssCOMMON 007B                          ___latbits 0002  
                    __pcstackBANK0 0036                    ?i1_led_SetState 0070  
        __size_of_timer_Timer0Init 000D                  __size_of_init_env 006C  
                         ?___awmod 0036                          _led_Blink 02B7  
                         ?___lwmod 0070                    ?_uart_Send_byte 0070  
                _timer_Timer0Reset 02DA                  _timer_Timer0Start 02E4  
               ?_timer_Timer0Reset 0070                 ?_timer_Timer0Start 0070  
                         _LATAbits 010C                           _LATBbits 010D  
                        clear_ram0 02D4                   ??i1_data_getdata 0070  
                         _PIE1bits 0091                           _PIE2bits 0092  
              ??_timer_Timer0Reset 0036                ??_timer_Timer0Start 0036  
                         _PIR1bits 0011                           _PIR2bits 0012  
                    ??_ISR_uart_TX 0070                          _uart_init 024E  
                       ?_led_Blink 0070                        _display_set 02CC  
        __end_of_timer_Timer0Reset 02DF                           _WPUCbits 020E  
        __end_of_timer_Timer0Start 02E8            __size_of_display_update 0072  
              _timer_Timer0Handdle 02EC              __end_of_key_isPressed 01B0  
                        init_env@i 003A                      ?_data_getdata 0070  
                       ?_uart_init 0070           key_isPressed@history_key 002D  
                 __size_of___awmod 0046                   __size_of___lwmod 002C  
              __end_of_ISR_uart_TX 02A1                     led_Blink@State 002E  
             ?_timer_Timer0Handdle 0070       __size_ofi1_timer_Timer0Reset 0005  
                         __ptext10 0207                           __ptext11 01DC  
                         __ptext20 02B7                           __ptext12 0287  
                         __ptext21 02C2                           __ptext13 012D  
                         __ptext22 01B0                           __ptext23 02E8  
                         __ptext15 02DF                           __ptext24 0294  
                         __ptext16 026A                           __ptext17 02EC  
                         __ptext18 0173                           __ptext19 02F1  
    display_control595_delay@times 0037                   _timer_Timer0Init 027A  
                         _init_env 00C1                      __size_of_main 0021  
                         _segmcode 02A1                      init_env@pdata 0039  
     __size_of_timer_IsTimer0Itrpt 0004                     ??_data_getdata 0036  
                         int$flags 007E                        ??_led_Blink 0071  
            ??_timer_Timer0Handdle 0079         __size_of_timer_Timer0Reset 0005  
                 ??i1_led_SetState 0070                         _INTCONbits 000B  
       __size_of_timer_Timer0Start 0004                           intlevel1 0000  
                 ___lwmod@dividend 0072                  __CFG_CLKOUTEN$OFF 0000  
                       _OSCCONbits 0099                 key_isPressed@pdata 0078  
                 ??_uart_Send_byte 0070                        _ISR_uart_TX 0294  
                      ??_uart_init 0036                    display_set@ison 0036  
                    __pstringtext1 02A1        __size_of_display_write_byte 002B  
      __size_of_display_write_once 0026                    display_update@i 002F  
                  ___lwmod@divisor 0070           _display_control595_delay 0287  
                  ___lwmod@counter 0075                     _display_update 004F  
                    ?_led_SetState 0070  
